;
; Definition file of af.dll
; Automatic generated by gendef 1.1
; written by Kai Tietz 2008
;
LIBRARY "af.dll"
EXPORTS
; public: __cdecl af::array::array<signed char>(class af::dim4 const &__ptr64 ,signed char const *__ptr64,enum af_source)__ptr64 
??$?0C@array@af@@QEAA@AEBVdim4@1@PEBCW4af_source@@@Z
; public: __cdecl af::array::array<signed char>(__int64,__int64,__int64,__int64,signed char const *__ptr64,enum af_source)__ptr64 
??$?0C@array@af@@QEAA@_J000PEBCW4af_source@@@Z
; public: __cdecl af::array::array<signed char>(__int64,__int64,__int64,signed char const *__ptr64,enum af_source)__ptr64 
??$?0C@array@af@@QEAA@_J00PEBCW4af_source@@@Z
; public: __cdecl af::array::array<signed char>(__int64,__int64,signed char const *__ptr64,enum af_source)__ptr64 
??$?0C@array@af@@QEAA@_J0PEBCW4af_source@@@Z
; public: __cdecl af::array::array<signed char>(__int64,signed char const *__ptr64,enum af_source)__ptr64 
??$?0C@array@af@@QEAA@_JPEBCW4af_source@@@Z
; public: __cdecl af::array::array<char>(class af::dim4 const &__ptr64 ,char const *__ptr64,enum af_source)__ptr64 
??$?0D@array@af@@QEAA@AEBVdim4@1@PEBDW4af_source@@@Z
; public: __cdecl af::array::array<char>(__int64,__int64,__int64,__int64,char const *__ptr64,enum af_source)__ptr64 
??$?0D@array@af@@QEAA@_J000PEBDW4af_source@@@Z
; public: __cdecl af::array::array<char>(__int64,__int64,__int64,char const *__ptr64,enum af_source)__ptr64 
??$?0D@array@af@@QEAA@_J00PEBDW4af_source@@@Z
; public: __cdecl af::array::array<char>(__int64,__int64,char const *__ptr64,enum af_source)__ptr64 
??$?0D@array@af@@QEAA@_J0PEBDW4af_source@@@Z
; public: __cdecl af::array::array<char>(__int64,char const *__ptr64,enum af_source)__ptr64 
??$?0D@array@af@@QEAA@_JPEBDW4af_source@@@Z
; public: __cdecl af::array::array<unsigned char>(class af::dim4 const &__ptr64 ,unsigned char const *__ptr64,enum af_source)__ptr64 
??$?0E@array@af@@QEAA@AEBVdim4@1@PEBEW4af_source@@@Z
; public: __cdecl af::array::array<unsigned char>(__int64,__int64,__int64,__int64,unsigned char const *__ptr64,enum af_source)__ptr64 
??$?0E@array@af@@QEAA@_J000PEBEW4af_source@@@Z
; public: __cdecl af::array::array<unsigned char>(__int64,__int64,__int64,unsigned char const *__ptr64,enum af_source)__ptr64 
??$?0E@array@af@@QEAA@_J00PEBEW4af_source@@@Z
; public: __cdecl af::array::array<unsigned char>(__int64,__int64,unsigned char const *__ptr64,enum af_source)__ptr64 
??$?0E@array@af@@QEAA@_J0PEBEW4af_source@@@Z
; public: __cdecl af::array::array<unsigned char>(__int64,unsigned char const *__ptr64,enum af_source)__ptr64 
??$?0E@array@af@@QEAA@_JPEBEW4af_source@@@Z
; public: __cdecl af::array::array<short>(class af::dim4 const &__ptr64 ,short const *__ptr64,enum af_source)__ptr64 
??$?0F@array@af@@QEAA@AEBVdim4@1@PEBFW4af_source@@@Z
; public: __cdecl af::array::array<short>(__int64,__int64,__int64,__int64,short const *__ptr64,enum af_source)__ptr64 
??$?0F@array@af@@QEAA@_J000PEBFW4af_source@@@Z
; public: __cdecl af::array::array<short>(__int64,__int64,__int64,short const *__ptr64,enum af_source)__ptr64 
??$?0F@array@af@@QEAA@_J00PEBFW4af_source@@@Z
; public: __cdecl af::array::array<short>(__int64,__int64,short const *__ptr64,enum af_source)__ptr64 
??$?0F@array@af@@QEAA@_J0PEBFW4af_source@@@Z
; public: __cdecl af::array::array<short>(__int64,short const *__ptr64,enum af_source)__ptr64 
??$?0F@array@af@@QEAA@_JPEBFW4af_source@@@Z
; public: __cdecl af::array::array<unsigned short>(class af::dim4 const &__ptr64 ,unsigned short const *__ptr64,enum af_source)__ptr64 
??$?0G@array@af@@QEAA@AEBVdim4@1@PEBGW4af_source@@@Z
; public: __cdecl af::array::array<unsigned short>(__int64,__int64,__int64,__int64,unsigned short const *__ptr64,enum af_source)__ptr64 
??$?0G@array@af@@QEAA@_J000PEBGW4af_source@@@Z
; public: __cdecl af::array::array<unsigned short>(__int64,__int64,__int64,unsigned short const *__ptr64,enum af_source)__ptr64 
??$?0G@array@af@@QEAA@_J00PEBGW4af_source@@@Z
; public: __cdecl af::array::array<unsigned short>(__int64,__int64,unsigned short const *__ptr64,enum af_source)__ptr64 
??$?0G@array@af@@QEAA@_J0PEBGW4af_source@@@Z
; public: __cdecl af::array::array<unsigned short>(__int64,unsigned short const *__ptr64,enum af_source)__ptr64 
??$?0G@array@af@@QEAA@_JPEBGW4af_source@@@Z
; public: __cdecl af::array::array<int>(class af::dim4 const &__ptr64 ,int const *__ptr64,enum af_source)__ptr64 
??$?0H@array@af@@QEAA@AEBVdim4@1@PEBHW4af_source@@@Z
; public: __cdecl af::array::array<int>(__int64,__int64,__int64,__int64,int const *__ptr64,enum af_source)__ptr64 
??$?0H@array@af@@QEAA@_J000PEBHW4af_source@@@Z
; public: __cdecl af::array::array<int>(__int64,__int64,__int64,int const *__ptr64,enum af_source)__ptr64 
??$?0H@array@af@@QEAA@_J00PEBHW4af_source@@@Z
; public: __cdecl af::array::array<int>(__int64,__int64,int const *__ptr64,enum af_source)__ptr64 
??$?0H@array@af@@QEAA@_J0PEBHW4af_source@@@Z
; public: __cdecl af::array::array<int>(__int64,int const *__ptr64,enum af_source)__ptr64 
??$?0H@array@af@@QEAA@_JPEBHW4af_source@@@Z
; public: __cdecl af::array::array<unsigned int>(class af::dim4 const &__ptr64 ,unsigned int const *__ptr64,enum af_source)__ptr64 
??$?0I@array@af@@QEAA@AEBVdim4@1@PEBIW4af_source@@@Z
; public: __cdecl af::array::array<unsigned int>(__int64,__int64,__int64,__int64,unsigned int const *__ptr64,enum af_source)__ptr64 
??$?0I@array@af@@QEAA@_J000PEBIW4af_source@@@Z
; public: __cdecl af::array::array<unsigned int>(__int64,__int64,__int64,unsigned int const *__ptr64,enum af_source)__ptr64 
??$?0I@array@af@@QEAA@_J00PEBIW4af_source@@@Z
; public: __cdecl af::array::array<unsigned int>(__int64,__int64,unsigned int const *__ptr64,enum af_source)__ptr64 
??$?0I@array@af@@QEAA@_J0PEBIW4af_source@@@Z
; public: __cdecl af::array::array<unsigned int>(__int64,unsigned int const *__ptr64,enum af_source)__ptr64 
??$?0I@array@af@@QEAA@_JPEBIW4af_source@@@Z
; public: __cdecl af::array::array<float>(class af::dim4 const &__ptr64 ,float const *__ptr64,enum af_source)__ptr64 
??$?0M@array@af@@QEAA@AEBVdim4@1@PEBMW4af_source@@@Z
; public: __cdecl af::array::array<float>(__int64,__int64,__int64,__int64,float const *__ptr64,enum af_source)__ptr64 
??$?0M@array@af@@QEAA@_J000PEBMW4af_source@@@Z
; public: __cdecl af::array::array<float>(__int64,__int64,__int64,float const *__ptr64,enum af_source)__ptr64 
??$?0M@array@af@@QEAA@_J00PEBMW4af_source@@@Z
; public: __cdecl af::array::array<float>(__int64,__int64,float const *__ptr64,enum af_source)__ptr64 
??$?0M@array@af@@QEAA@_J0PEBMW4af_source@@@Z
; public: __cdecl af::array::array<float>(__int64,float const *__ptr64,enum af_source)__ptr64 
??$?0M@array@af@@QEAA@_JPEBMW4af_source@@@Z
; public: __cdecl af::array::array<double>(class af::dim4 const &__ptr64 ,double const *__ptr64,enum af_source)__ptr64 
??$?0N@array@af@@QEAA@AEBVdim4@1@PEBNW4af_source@@@Z
; public: __cdecl af::array::array<double>(__int64,__int64,__int64,__int64,double const *__ptr64,enum af_source)__ptr64 
??$?0N@array@af@@QEAA@_J000PEBNW4af_source@@@Z
; public: __cdecl af::array::array<double>(__int64,__int64,__int64,double const *__ptr64,enum af_source)__ptr64 
??$?0N@array@af@@QEAA@_J00PEBNW4af_source@@@Z
; public: __cdecl af::array::array<double>(__int64,__int64,double const *__ptr64,enum af_source)__ptr64 
??$?0N@array@af@@QEAA@_J0PEBNW4af_source@@@Z
; public: __cdecl af::array::array<double>(__int64,double const *__ptr64,enum af_source)__ptr64 
??$?0N@array@af@@QEAA@_JPEBNW4af_source@@@Z
; public: __cdecl af::array::array<struct af::af_cdouble>(class af::dim4 const &__ptr64 ,struct af::af_cdouble const *__ptr64,enum af_source)__ptr64 
??$?0Uaf_cdouble@af@@@array@af@@QEAA@AEBVdim4@1@PEBUaf_cdouble@1@W4af_source@@@Z
; public: __cdecl af::array::array<struct af::af_cdouble>(__int64,__int64,__int64,__int64,struct af::af_cdouble const *__ptr64,enum af_source)__ptr64 
??$?0Uaf_cdouble@af@@@array@af@@QEAA@_J000PEBUaf_cdouble@1@W4af_source@@@Z
; public: __cdecl af::array::array<struct af::af_cdouble>(__int64,__int64,__int64,struct af::af_cdouble const *__ptr64,enum af_source)__ptr64 
??$?0Uaf_cdouble@af@@@array@af@@QEAA@_J00PEBUaf_cdouble@1@W4af_source@@@Z
; public: __cdecl af::array::array<struct af::af_cdouble>(__int64,__int64,struct af::af_cdouble const *__ptr64,enum af_source)__ptr64 
??$?0Uaf_cdouble@af@@@array@af@@QEAA@_J0PEBUaf_cdouble@1@W4af_source@@@Z
; public: __cdecl af::array::array<struct af::af_cdouble>(__int64,struct af::af_cdouble const *__ptr64,enum af_source)__ptr64 
??$?0Uaf_cdouble@af@@@array@af@@QEAA@_JPEBUaf_cdouble@1@W4af_source@@@Z
; public: __cdecl af::array::array<struct af::af_cfloat>(class af::dim4 const &__ptr64 ,struct af::af_cfloat const *__ptr64,enum af_source)__ptr64 
??$?0Uaf_cfloat@af@@@array@af@@QEAA@AEBVdim4@1@PEBUaf_cfloat@1@W4af_source@@@Z
; public: __cdecl af::array::array<struct af::af_cfloat>(__int64,__int64,__int64,__int64,struct af::af_cfloat const *__ptr64,enum af_source)__ptr64 
??$?0Uaf_cfloat@af@@@array@af@@QEAA@_J000PEBUaf_cfloat@1@W4af_source@@@Z
; public: __cdecl af::array::array<struct af::af_cfloat>(__int64,__int64,__int64,struct af::af_cfloat const *__ptr64,enum af_source)__ptr64 
??$?0Uaf_cfloat@af@@@array@af@@QEAA@_J00PEBUaf_cfloat@1@W4af_source@@@Z
; public: __cdecl af::array::array<struct af::af_cfloat>(__int64,__int64,struct af::af_cfloat const *__ptr64,enum af_source)__ptr64 
??$?0Uaf_cfloat@af@@@array@af@@QEAA@_J0PEBUaf_cfloat@1@W4af_source@@@Z
; public: __cdecl af::array::array<struct af::af_cfloat>(__int64,struct af::af_cfloat const *__ptr64,enum af_source)__ptr64 
??$?0Uaf_cfloat@af@@@array@af@@QEAA@_JPEBUaf_cfloat@1@W4af_source@@@Z
; public: __cdecl af::array::array<struct af_half>(class af::dim4 const &__ptr64 ,struct af_half const *__ptr64,enum af_source)__ptr64 
??$?0Uaf_half@@@array@af@@QEAA@AEBVdim4@1@PEBUaf_half@@W4af_source@@@Z
; public: __cdecl af::array::array<struct af_half>(__int64,__int64,__int64,__int64,struct af_half const *__ptr64,enum af_source)__ptr64 
??$?0Uaf_half@@@array@af@@QEAA@_J000PEBUaf_half@@W4af_source@@@Z
; public: __cdecl af::array::array<struct af_half>(__int64,__int64,__int64,struct af_half const *__ptr64,enum af_source)__ptr64 
??$?0Uaf_half@@@array@af@@QEAA@_J00PEBUaf_half@@W4af_source@@@Z
; public: __cdecl af::array::array<struct af_half>(__int64,__int64,struct af_half const *__ptr64,enum af_source)__ptr64 
??$?0Uaf_half@@@array@af@@QEAA@_J0PEBUaf_half@@W4af_source@@@Z
; public: __cdecl af::array::array<struct af_half>(__int64,struct af_half const *__ptr64,enum af_source)__ptr64 
??$?0Uaf_half@@@array@af@@QEAA@_JPEBUaf_half@@W4af_source@@@Z
; public: __cdecl af::array::array<class half_float::half>(class af::dim4 const &__ptr64 ,class half_float::half const *__ptr64,enum af_source)__ptr64 
??$?0Vhalf@half_float@@@array@af@@QEAA@AEBVdim4@1@PEBVhalf@half_float@@W4af_source@@@Z
; public: __cdecl af::array::array<class half_float::half>(__int64,__int64,__int64,__int64,class half_float::half const *__ptr64,enum af_source)__ptr64 
??$?0Vhalf@half_float@@@array@af@@QEAA@_J000PEBVhalf@half_float@@W4af_source@@@Z
; public: __cdecl af::array::array<class half_float::half>(__int64,__int64,__int64,class half_float::half const *__ptr64,enum af_source)__ptr64 
??$?0Vhalf@half_float@@@array@af@@QEAA@_J00PEBVhalf@half_float@@W4af_source@@@Z
; public: __cdecl af::array::array<class half_float::half>(__int64,__int64,class half_float::half const *__ptr64,enum af_source)__ptr64 
??$?0Vhalf@half_float@@@array@af@@QEAA@_J0PEBVhalf@half_float@@W4af_source@@@Z
; public: __cdecl af::array::array<class half_float::half>(__int64,class half_float::half const *__ptr64,enum af_source)__ptr64 
??$?0Vhalf@half_float@@@array@af@@QEAA@_JPEBVhalf@half_float@@W4af_source@@@Z
; public: __cdecl af::array::array<__int64>(class af::dim4 const &__ptr64 ,__int64 const *__ptr64,enum af_source)__ptr64 
??$?0_J@array@af@@QEAA@AEBVdim4@1@PEB_JW4af_source@@@Z
; public: __cdecl af::array::array<__int64>(__int64,__int64,__int64,__int64,__int64 const *__ptr64,enum af_source)__ptr64 
??$?0_J@array@af@@QEAA@_J000PEB_JW4af_source@@@Z
; public: __cdecl af::array::array<__int64>(__int64,__int64,__int64,__int64 const *__ptr64,enum af_source)__ptr64 
??$?0_J@array@af@@QEAA@_J00PEB_JW4af_source@@@Z
; public: __cdecl af::array::array<__int64>(__int64,__int64,__int64 const *__ptr64,enum af_source)__ptr64 
??$?0_J@array@af@@QEAA@_J0PEB_JW4af_source@@@Z
; public: __cdecl af::array::array<__int64>(__int64,__int64 const *__ptr64,enum af_source)__ptr64 
??$?0_J@array@af@@QEAA@_JPEB_JW4af_source@@@Z
; public: __cdecl af::array::array<unsigned __int64>(class af::dim4 const &__ptr64 ,unsigned __int64 const *__ptr64,enum af_source)__ptr64 
??$?0_K@array@af@@QEAA@AEBVdim4@1@PEB_KW4af_source@@@Z
; public: __cdecl af::array::array<unsigned __int64>(__int64,__int64,__int64,__int64,unsigned __int64 const *__ptr64,enum af_source)__ptr64 
??$?0_K@array@af@@QEAA@_J000PEB_KW4af_source@@@Z
; public: __cdecl af::array::array<unsigned __int64>(__int64,__int64,__int64,unsigned __int64 const *__ptr64,enum af_source)__ptr64 
??$?0_K@array@af@@QEAA@_J00PEB_KW4af_source@@@Z
; public: __cdecl af::array::array<unsigned __int64>(__int64,__int64,unsigned __int64 const *__ptr64,enum af_source)__ptr64 
??$?0_K@array@af@@QEAA@_J0PEB_KW4af_source@@@Z
; public: __cdecl af::array::array<unsigned __int64>(__int64,unsigned __int64 const *__ptr64,enum af_source)__ptr64 
??$?0_K@array@af@@QEAA@_JPEB_KW4af_source@@@Z
; signed char __cdecl af::<signed char>(class af::array const &__ptr64 )
??$allTrue@C@af@@YACAEBVarray@0@@Z
; char __cdecl af::<char>(class af::array const &__ptr64 )
??$allTrue@D@af@@YADAEBVarray@0@@Z
; unsigned char __cdecl af::<unsigned char>(class af::array const &__ptr64 )
??$allTrue@E@af@@YAEAEBVarray@0@@Z
; short __cdecl af::<short>(class af::array const &__ptr64 )
??$allTrue@F@af@@YAFAEBVarray@0@@Z
; unsigned short __cdecl af::<unsigned short>(class af::array const &__ptr64 )
??$allTrue@G@af@@YAGAEBVarray@0@@Z
; int __cdecl af::<int>(class af::array const &__ptr64 )
??$allTrue@H@af@@YAHAEBVarray@0@@Z
; unsigned int __cdecl af::<unsigned int>(class af::array const &__ptr64 )
??$allTrue@I@af@@YAIAEBVarray@0@@Z
; long __cdecl af::<long>(class af::array const &__ptr64 )
??$allTrue@J@af@@YAJAEBVarray@0@@Z
; unsigned long __cdecl af::<unsigned long>(class af::array const &__ptr64 )
??$allTrue@K@af@@YAKAEBVarray@0@@Z
; float __cdecl af::<float>(class af::array const &__ptr64 )
??$allTrue@M@af@@YAMAEBVarray@0@@Z
; double __cdecl af::<double>(class af::array const &__ptr64 )
??$allTrue@N@af@@YANAEBVarray@0@@Z
; struct af::af_cdouble __cdecl af::<struct af::af_cdouble>(class af::array const &__ptr64 )
??$allTrue@Uaf_cdouble@af@@@af@@YA?AUaf_cdouble@0@AEBVarray@0@@Z
; struct af::af_cfloat __cdecl af::<struct af::af_cfloat>(class af::array const &__ptr64 )
??$allTrue@Uaf_cfloat@af@@@af@@YA?AUaf_cfloat@0@AEBVarray@0@@Z
; class af::array __cdecl af::<class af::array>(class af::array const &__ptr64 )
??$allTrue@Varray@af@@@af@@YA?AVarray@0@AEBV10@@Z
; __int64 __cdecl af::<__int64>(class af::array const &__ptr64 )
??$allTrue@_J@af@@YA_JAEBVarray@0@@Z
; unsigned __int64 __cdecl af::<unsigned __int64>(class af::array const &__ptr64 )
??$allTrue@_K@af@@YA_KAEBVarray@0@@Z
; bool __cdecl af::<bool>(class af::array const &__ptr64 )
??$allTrue@_N@af@@YA_NAEBVarray@0@@Z
; signed char *__ptr64 __cdecl af::<signed char>(unsigned __int64)
??$alloc@C@af@@YAPEAC_K@Z
; char *__ptr64 __cdecl af::<char>(unsigned __int64)
??$alloc@D@af@@YAPEAD_K@Z
; unsigned char *__ptr64 __cdecl af::<unsigned char>(unsigned __int64)
??$alloc@E@af@@YAPEAE_K@Z
; short *__ptr64 __cdecl af::<short>(unsigned __int64)
??$alloc@F@af@@YAPEAF_K@Z
; unsigned short *__ptr64 __cdecl af::<unsigned short>(unsigned __int64)
??$alloc@G@af@@YAPEAG_K@Z
; int *__ptr64 __cdecl af::<int>(unsigned __int64)
??$alloc@H@af@@YAPEAH_K@Z
; unsigned int *__ptr64 __cdecl af::<unsigned int>(unsigned __int64)
??$alloc@I@af@@YAPEAI_K@Z
; float *__ptr64 __cdecl af::<float>(unsigned __int64)
??$alloc@M@af@@YAPEAM_K@Z
; double *__ptr64 __cdecl af::<double>(unsigned __int64)
??$alloc@N@af@@YAPEAN_K@Z
; struct af::af_cdouble *__ptr64 __cdecl af::<struct af::af_cdouble>(unsigned __int64)
??$alloc@Uaf_cdouble@af@@@af@@YAPEAUaf_cdouble@0@_K@Z
; struct af::af_cfloat *__ptr64 __cdecl af::<struct af::af_cfloat>(unsigned __int64)
??$alloc@Uaf_cfloat@af@@@af@@YAPEAUaf_cfloat@0@_K@Z
; __int64 *__ptr64 __cdecl af::<__int64>(unsigned __int64)
??$alloc@_J@af@@YAPEA_J_K@Z
; unsigned __int64 *__ptr64 __cdecl af::<unsigned __int64>(unsigned __int64)
??$alloc@_K@af@@YAPEA_K_K@Z
; signed char *__ptr64 __cdecl af::<signed char>(unsigned __int64)
??$allocHost@C@af@@YAPEAC_K@Z
; char *__ptr64 __cdecl af::<char>(unsigned __int64)
??$allocHost@D@af@@YAPEAD_K@Z
; unsigned char *__ptr64 __cdecl af::<unsigned char>(unsigned __int64)
??$allocHost@E@af@@YAPEAE_K@Z
; short *__ptr64 __cdecl af::<short>(unsigned __int64)
??$allocHost@F@af@@YAPEAF_K@Z
; unsigned short *__ptr64 __cdecl af::<unsigned short>(unsigned __int64)
??$allocHost@G@af@@YAPEAG_K@Z
; int *__ptr64 __cdecl af::<int>(unsigned __int64)
??$allocHost@H@af@@YAPEAH_K@Z
; unsigned int *__ptr64 __cdecl af::<unsigned int>(unsigned __int64)
??$allocHost@I@af@@YAPEAI_K@Z
; float *__ptr64 __cdecl af::<float>(unsigned __int64)
??$allocHost@M@af@@YAPEAM_K@Z
; double *__ptr64 __cdecl af::<double>(unsigned __int64)
??$allocHost@N@af@@YAPEAN_K@Z
; struct af::af_cdouble *__ptr64 __cdecl af::<struct af::af_cdouble>(unsigned __int64)
??$allocHost@Uaf_cdouble@af@@@af@@YAPEAUaf_cdouble@0@_K@Z
; struct af::af_cfloat *__ptr64 __cdecl af::<struct af::af_cfloat>(unsigned __int64)
??$allocHost@Uaf_cfloat@af@@@af@@YAPEAUaf_cfloat@0@_K@Z
; __int64 *__ptr64 __cdecl af::<__int64>(unsigned __int64)
??$allocHost@_J@af@@YAPEA_J_K@Z
; unsigned __int64 *__ptr64 __cdecl af::<unsigned __int64>(unsigned __int64)
??$allocHost@_K@af@@YAPEA_K_K@Z
; signed char __cdecl af::<signed char>(class af::array const &__ptr64 )
??$alltrue@C@af@@YACAEBVarray@0@@Z
; char __cdecl af::<char>(class af::array const &__ptr64 )
??$alltrue@D@af@@YADAEBVarray@0@@Z
; unsigned char __cdecl af::<unsigned char>(class af::array const &__ptr64 )
??$alltrue@E@af@@YAEAEBVarray@0@@Z
; short __cdecl af::<short>(class af::array const &__ptr64 )
??$alltrue@F@af@@YAFAEBVarray@0@@Z
; unsigned short __cdecl af::<unsigned short>(class af::array const &__ptr64 )
??$alltrue@G@af@@YAGAEBVarray@0@@Z
; int __cdecl af::<int>(class af::array const &__ptr64 )
??$alltrue@H@af@@YAHAEBVarray@0@@Z
; unsigned int __cdecl af::<unsigned int>(class af::array const &__ptr64 )
??$alltrue@I@af@@YAIAEBVarray@0@@Z
; long __cdecl af::<long>(class af::array const &__ptr64 )
??$alltrue@J@af@@YAJAEBVarray@0@@Z
; unsigned long __cdecl af::<unsigned long>(class af::array const &__ptr64 )
??$alltrue@K@af@@YAKAEBVarray@0@@Z
; float __cdecl af::<float>(class af::array const &__ptr64 )
??$alltrue@M@af@@YAMAEBVarray@0@@Z
; double __cdecl af::<double>(class af::array const &__ptr64 )
??$alltrue@N@af@@YANAEBVarray@0@@Z
; struct af::af_cdouble __cdecl af::<struct af::af_cdouble>(class af::array const &__ptr64 )
??$alltrue@Uaf_cdouble@af@@@af@@YA?AUaf_cdouble@0@AEBVarray@0@@Z
; struct af::af_cfloat __cdecl af::<struct af::af_cfloat>(class af::array const &__ptr64 )
??$alltrue@Uaf_cfloat@af@@@af@@YA?AUaf_cfloat@0@AEBVarray@0@@Z
; __int64 __cdecl af::<__int64>(class af::array const &__ptr64 )
??$alltrue@_J@af@@YA_JAEBVarray@0@@Z
; unsigned __int64 __cdecl af::<unsigned __int64>(class af::array const &__ptr64 )
??$alltrue@_K@af@@YA_KAEBVarray@0@@Z
; bool __cdecl af::<bool>(class af::array const &__ptr64 )
??$alltrue@_N@af@@YA_NAEBVarray@0@@Z
; signed char __cdecl af::<signed char>(class af::array const &__ptr64 )
??$anyTrue@C@af@@YACAEBVarray@0@@Z
; char __cdecl af::<char>(class af::array const &__ptr64 )
??$anyTrue@D@af@@YADAEBVarray@0@@Z
; unsigned char __cdecl af::<unsigned char>(class af::array const &__ptr64 )
??$anyTrue@E@af@@YAEAEBVarray@0@@Z
; short __cdecl af::<short>(class af::array const &__ptr64 )
??$anyTrue@F@af@@YAFAEBVarray@0@@Z
; unsigned short __cdecl af::<unsigned short>(class af::array const &__ptr64 )
??$anyTrue@G@af@@YAGAEBVarray@0@@Z
; int __cdecl af::<int>(class af::array const &__ptr64 )
??$anyTrue@H@af@@YAHAEBVarray@0@@Z
; unsigned int __cdecl af::<unsigned int>(class af::array const &__ptr64 )
??$anyTrue@I@af@@YAIAEBVarray@0@@Z
; long __cdecl af::<long>(class af::array const &__ptr64 )
??$anyTrue@J@af@@YAJAEBVarray@0@@Z
; unsigned long __cdecl af::<unsigned long>(class af::array const &__ptr64 )
??$anyTrue@K@af@@YAKAEBVarray@0@@Z
; float __cdecl af::<float>(class af::array const &__ptr64 )
??$anyTrue@M@af@@YAMAEBVarray@0@@Z
; double __cdecl af::<double>(class af::array const &__ptr64 )
??$anyTrue@N@af@@YANAEBVarray@0@@Z
; struct af::af_cdouble __cdecl af::<struct af::af_cdouble>(class af::array const &__ptr64 )
??$anyTrue@Uaf_cdouble@af@@@af@@YA?AUaf_cdouble@0@AEBVarray@0@@Z
; struct af::af_cfloat __cdecl af::<struct af::af_cfloat>(class af::array const &__ptr64 )
??$anyTrue@Uaf_cfloat@af@@@af@@YA?AUaf_cfloat@0@AEBVarray@0@@Z
; class af::array __cdecl af::<class af::array>(class af::array const &__ptr64 )
??$anyTrue@Varray@af@@@af@@YA?AVarray@0@AEBV10@@Z
; __int64 __cdecl af::<__int64>(class af::array const &__ptr64 )
??$anyTrue@_J@af@@YA_JAEBVarray@0@@Z
; unsigned __int64 __cdecl af::<unsigned __int64>(class af::array const &__ptr64 )
??$anyTrue@_K@af@@YA_KAEBVarray@0@@Z
; bool __cdecl af::<bool>(class af::array const &__ptr64 )
??$anyTrue@_N@af@@YA_NAEBVarray@0@@Z
; signed char __cdecl af::<signed char>(class af::array const &__ptr64 )
??$anytrue@C@af@@YACAEBVarray@0@@Z
; char __cdecl af::<char>(class af::array const &__ptr64 )
??$anytrue@D@af@@YADAEBVarray@0@@Z
; unsigned char __cdecl af::<unsigned char>(class af::array const &__ptr64 )
??$anytrue@E@af@@YAEAEBVarray@0@@Z
; short __cdecl af::<short>(class af::array const &__ptr64 )
??$anytrue@F@af@@YAFAEBVarray@0@@Z
; unsigned short __cdecl af::<unsigned short>(class af::array const &__ptr64 )
??$anytrue@G@af@@YAGAEBVarray@0@@Z
; int __cdecl af::<int>(class af::array const &__ptr64 )
??$anytrue@H@af@@YAHAEBVarray@0@@Z
; unsigned int __cdecl af::<unsigned int>(class af::array const &__ptr64 )
??$anytrue@I@af@@YAIAEBVarray@0@@Z
; long __cdecl af::<long>(class af::array const &__ptr64 )
??$anytrue@J@af@@YAJAEBVarray@0@@Z
; unsigned long __cdecl af::<unsigned long>(class af::array const &__ptr64 )
??$anytrue@K@af@@YAKAEBVarray@0@@Z
; float __cdecl af::<float>(class af::array const &__ptr64 )
??$anytrue@M@af@@YAMAEBVarray@0@@Z
; double __cdecl af::<double>(class af::array const &__ptr64 )
??$anytrue@N@af@@YANAEBVarray@0@@Z
; struct af::af_cdouble __cdecl af::<struct af::af_cdouble>(class af::array const &__ptr64 )
??$anytrue@Uaf_cdouble@af@@@af@@YA?AUaf_cdouble@0@AEBVarray@0@@Z
; struct af::af_cfloat __cdecl af::<struct af::af_cfloat>(class af::array const &__ptr64 )
??$anytrue@Uaf_cfloat@af@@@af@@YA?AUaf_cfloat@0@AEBVarray@0@@Z
; __int64 __cdecl af::<__int64>(class af::array const &__ptr64 )
??$anytrue@_J@af@@YA_JAEBVarray@0@@Z
; unsigned __int64 __cdecl af::<unsigned __int64>(class af::array const &__ptr64 )
??$anytrue@_K@af@@YA_KAEBVarray@0@@Z
; bool __cdecl af::<bool>(class af::array const &__ptr64 )
??$anytrue@_N@af@@YA_NAEBVarray@0@@Z
; class af::array __cdecl af::<signed char>(signed char,class af::dim4 const &__ptr64 ,enum af_dtype)
??$constant@C@af@@YA?AVarray@0@CAEBVdim4@0@W4af_dtype@@@Z
; class af::array __cdecl af::<signed char>(signed char,__int64,__int64,__int64,__int64,enum af_dtype)
??$constant@C@af@@YA?AVarray@0@C_J000W4af_dtype@@@Z
; class af::array __cdecl af::<signed char>(signed char,__int64,__int64,__int64,enum af_dtype)
??$constant@C@af@@YA?AVarray@0@C_J00W4af_dtype@@@Z
; class af::array __cdecl af::<signed char>(signed char,__int64,__int64,enum af_dtype)
??$constant@C@af@@YA?AVarray@0@C_J0W4af_dtype@@@Z
; class af::array __cdecl af::<signed char>(signed char,__int64,enum af_dtype)
??$constant@C@af@@YA?AVarray@0@C_JW4af_dtype@@@Z
; class af::array __cdecl af::<char>(char,class af::dim4 const &__ptr64 ,enum af_dtype)
??$constant@D@af@@YA?AVarray@0@DAEBVdim4@0@W4af_dtype@@@Z
; class af::array __cdecl af::<char>(char,__int64,__int64,__int64,__int64,enum af_dtype)
??$constant@D@af@@YA?AVarray@0@D_J000W4af_dtype@@@Z
; class af::array __cdecl af::<char>(char,__int64,__int64,__int64,enum af_dtype)
??$constant@D@af@@YA?AVarray@0@D_J00W4af_dtype@@@Z
; class af::array __cdecl af::<char>(char,__int64,__int64,enum af_dtype)
??$constant@D@af@@YA?AVarray@0@D_J0W4af_dtype@@@Z
; class af::array __cdecl af::<char>(char,__int64,enum af_dtype)
??$constant@D@af@@YA?AVarray@0@D_JW4af_dtype@@@Z
; class af::array __cdecl af::<unsigned char>(unsigned char,class af::dim4 const &__ptr64 ,enum af_dtype)
??$constant@E@af@@YA?AVarray@0@EAEBVdim4@0@W4af_dtype@@@Z
; class af::array __cdecl af::<unsigned char>(unsigned char,__int64,__int64,__int64,__int64,enum af_dtype)
??$constant@E@af@@YA?AVarray@0@E_J000W4af_dtype@@@Z
; class af::array __cdecl af::<unsigned char>(unsigned char,__int64,__int64,__int64,enum af_dtype)
??$constant@E@af@@YA?AVarray@0@E_J00W4af_dtype@@@Z
; class af::array __cdecl af::<unsigned char>(unsigned char,__int64,__int64,enum af_dtype)
??$constant@E@af@@YA?AVarray@0@E_J0W4af_dtype@@@Z
; class af::array __cdecl af::<unsigned char>(unsigned char,__int64,enum af_dtype)
??$constant@E@af@@YA?AVarray@0@E_JW4af_dtype@@@Z
; class af::array __cdecl af::<short>(short,class af::dim4 const &__ptr64 ,enum af_dtype)
??$constant@F@af@@YA?AVarray@0@FAEBVdim4@0@W4af_dtype@@@Z
; class af::array __cdecl af::<short>(short,__int64,__int64,__int64,__int64,enum af_dtype)
??$constant@F@af@@YA?AVarray@0@F_J000W4af_dtype@@@Z
; class af::array __cdecl af::<short>(short,__int64,__int64,__int64,enum af_dtype)
??$constant@F@af@@YA?AVarray@0@F_J00W4af_dtype@@@Z
; class af::array __cdecl af::<short>(short,__int64,__int64,enum af_dtype)
??$constant@F@af@@YA?AVarray@0@F_J0W4af_dtype@@@Z
; class af::array __cdecl af::<short>(short,__int64,enum af_dtype)
??$constant@F@af@@YA?AVarray@0@F_JW4af_dtype@@@Z
; class af::array __cdecl af::<unsigned short>(unsigned short,class af::dim4 const &__ptr64 ,enum af_dtype)
??$constant@G@af@@YA?AVarray@0@GAEBVdim4@0@W4af_dtype@@@Z
; class af::array __cdecl af::<unsigned short>(unsigned short,__int64,__int64,__int64,__int64,enum af_dtype)
??$constant@G@af@@YA?AVarray@0@G_J000W4af_dtype@@@Z
; class af::array __cdecl af::<unsigned short>(unsigned short,__int64,__int64,__int64,enum af_dtype)
??$constant@G@af@@YA?AVarray@0@G_J00W4af_dtype@@@Z
; class af::array __cdecl af::<unsigned short>(unsigned short,__int64,__int64,enum af_dtype)
??$constant@G@af@@YA?AVarray@0@G_J0W4af_dtype@@@Z
; class af::array __cdecl af::<unsigned short>(unsigned short,__int64,enum af_dtype)
??$constant@G@af@@YA?AVarray@0@G_JW4af_dtype@@@Z
; class af::array __cdecl af::<int>(int,class af::dim4 const &__ptr64 ,enum af_dtype)
??$constant@H@af@@YA?AVarray@0@HAEBVdim4@0@W4af_dtype@@@Z
; class af::array __cdecl af::<int>(int,__int64,__int64,__int64,__int64,enum af_dtype)
??$constant@H@af@@YA?AVarray@0@H_J000W4af_dtype@@@Z
; class af::array __cdecl af::<int>(int,__int64,__int64,__int64,enum af_dtype)
??$constant@H@af@@YA?AVarray@0@H_J00W4af_dtype@@@Z
; class af::array __cdecl af::<int>(int,__int64,__int64,enum af_dtype)
??$constant@H@af@@YA?AVarray@0@H_J0W4af_dtype@@@Z
; class af::array __cdecl af::<int>(int,__int64,enum af_dtype)
??$constant@H@af@@YA?AVarray@0@H_JW4af_dtype@@@Z
; class af::array __cdecl af::<unsigned int>(unsigned int,class af::dim4 const &__ptr64 ,enum af_dtype)
??$constant@I@af@@YA?AVarray@0@IAEBVdim4@0@W4af_dtype@@@Z
; class af::array __cdecl af::<unsigned int>(unsigned int,__int64,__int64,__int64,__int64,enum af_dtype)
??$constant@I@af@@YA?AVarray@0@I_J000W4af_dtype@@@Z
; class af::array __cdecl af::<unsigned int>(unsigned int,__int64,__int64,__int64,enum af_dtype)
??$constant@I@af@@YA?AVarray@0@I_J00W4af_dtype@@@Z
; class af::array __cdecl af::<unsigned int>(unsigned int,__int64,__int64,enum af_dtype)
??$constant@I@af@@YA?AVarray@0@I_J0W4af_dtype@@@Z
; class af::array __cdecl af::<unsigned int>(unsigned int,__int64,enum af_dtype)
??$constant@I@af@@YA?AVarray@0@I_JW4af_dtype@@@Z
; class af::array __cdecl af::<long>(long,class af::dim4 const &__ptr64 ,enum af_dtype)
??$constant@J@af@@YA?AVarray@0@JAEBVdim4@0@W4af_dtype@@@Z
; class af::array __cdecl af::<long>(long,__int64,__int64,__int64,__int64,enum af_dtype)
??$constant@J@af@@YA?AVarray@0@J_J000W4af_dtype@@@Z
; class af::array __cdecl af::<long>(long,__int64,__int64,__int64,enum af_dtype)
??$constant@J@af@@YA?AVarray@0@J_J00W4af_dtype@@@Z
; class af::array __cdecl af::<long>(long,__int64,__int64,enum af_dtype)
??$constant@J@af@@YA?AVarray@0@J_J0W4af_dtype@@@Z
; class af::array __cdecl af::<long>(long,__int64,enum af_dtype)
??$constant@J@af@@YA?AVarray@0@J_JW4af_dtype@@@Z
; class af::array __cdecl af::<unsigned long>(unsigned long,class af::dim4 const &__ptr64 ,enum af_dtype)
??$constant@K@af@@YA?AVarray@0@KAEBVdim4@0@W4af_dtype@@@Z
; class af::array __cdecl af::<unsigned long>(unsigned long,__int64,__int64,__int64,__int64,enum af_dtype)
??$constant@K@af@@YA?AVarray@0@K_J000W4af_dtype@@@Z
; class af::array __cdecl af::<unsigned long>(unsigned long,__int64,__int64,__int64,enum af_dtype)
??$constant@K@af@@YA?AVarray@0@K_J00W4af_dtype@@@Z
; class af::array __cdecl af::<unsigned long>(unsigned long,__int64,__int64,enum af_dtype)
??$constant@K@af@@YA?AVarray@0@K_J0W4af_dtype@@@Z
; class af::array __cdecl af::<unsigned long>(unsigned long,__int64,enum af_dtype)
??$constant@K@af@@YA?AVarray@0@K_JW4af_dtype@@@Z
; class af::array __cdecl af::<float>(float,class af::dim4 const &__ptr64 ,enum af_dtype)
??$constant@M@af@@YA?AVarray@0@MAEBVdim4@0@W4af_dtype@@@Z
; class af::array __cdecl af::<float>(float,__int64,__int64,__int64,__int64,enum af_dtype)
??$constant@M@af@@YA?AVarray@0@M_J000W4af_dtype@@@Z
; class af::array __cdecl af::<float>(float,__int64,__int64,__int64,enum af_dtype)
??$constant@M@af@@YA?AVarray@0@M_J00W4af_dtype@@@Z
; class af::array __cdecl af::<float>(float,__int64,__int64,enum af_dtype)
??$constant@M@af@@YA?AVarray@0@M_J0W4af_dtype@@@Z
; class af::array __cdecl af::<float>(float,__int64,enum af_dtype)
??$constant@M@af@@YA?AVarray@0@M_JW4af_dtype@@@Z
; class af::array __cdecl af::<double>(double,class af::dim4 const &__ptr64 ,enum af_dtype)
??$constant@N@af@@YA?AVarray@0@NAEBVdim4@0@W4af_dtype@@@Z
; class af::array __cdecl af::<double>(double,__int64,__int64,__int64,__int64,enum af_dtype)
??$constant@N@af@@YA?AVarray@0@N_J000W4af_dtype@@@Z
; class af::array __cdecl af::<double>(double,__int64,__int64,__int64,enum af_dtype)
??$constant@N@af@@YA?AVarray@0@N_J00W4af_dtype@@@Z
; class af::array __cdecl af::<double>(double,__int64,__int64,enum af_dtype)
??$constant@N@af@@YA?AVarray@0@N_J0W4af_dtype@@@Z
; class af::array __cdecl af::<double>(double,__int64,enum af_dtype)
??$constant@N@af@@YA?AVarray@0@N_JW4af_dtype@@@Z
; class af::array __cdecl af::<struct af::af_cdouble>(struct af::af_cdouble,class af::dim4 const &__ptr64 ,enum af_dtype)
??$constant@Uaf_cdouble@af@@@af@@YA?AVarray@0@Uaf_cdouble@0@AEBVdim4@0@W4af_dtype@@@Z
; class af::array __cdecl af::<struct af::af_cdouble>(struct af::af_cdouble,__int64,__int64,__int64,__int64,enum af_dtype)
??$constant@Uaf_cdouble@af@@@af@@YA?AVarray@0@Uaf_cdouble@0@_J111W4af_dtype@@@Z
; class af::array __cdecl af::<struct af::af_cdouble>(struct af::af_cdouble,__int64,__int64,__int64,enum af_dtype)
??$constant@Uaf_cdouble@af@@@af@@YA?AVarray@0@Uaf_cdouble@0@_J11W4af_dtype@@@Z
; class af::array __cdecl af::<struct af::af_cdouble>(struct af::af_cdouble,__int64,__int64,enum af_dtype)
??$constant@Uaf_cdouble@af@@@af@@YA?AVarray@0@Uaf_cdouble@0@_J1W4af_dtype@@@Z
; class af::array __cdecl af::<struct af::af_cdouble>(struct af::af_cdouble,__int64,enum af_dtype)
??$constant@Uaf_cdouble@af@@@af@@YA?AVarray@0@Uaf_cdouble@0@_JW4af_dtype@@@Z
; class af::array __cdecl af::<struct af::af_cfloat>(struct af::af_cfloat,class af::dim4 const &__ptr64 ,enum af_dtype)
??$constant@Uaf_cfloat@af@@@af@@YA?AVarray@0@Uaf_cfloat@0@AEBVdim4@0@W4af_dtype@@@Z
; class af::array __cdecl af::<struct af::af_cfloat>(struct af::af_cfloat,__int64,__int64,__int64,__int64,enum af_dtype)
??$constant@Uaf_cfloat@af@@@af@@YA?AVarray@0@Uaf_cfloat@0@_J111W4af_dtype@@@Z
; class af::array __cdecl af::<struct af::af_cfloat>(struct af::af_cfloat,__int64,__int64,__int64,enum af_dtype)
??$constant@Uaf_cfloat@af@@@af@@YA?AVarray@0@Uaf_cfloat@0@_J11W4af_dtype@@@Z
; class af::array __cdecl af::<struct af::af_cfloat>(struct af::af_cfloat,__int64,__int64,enum af_dtype)
??$constant@Uaf_cfloat@af@@@af@@YA?AVarray@0@Uaf_cfloat@0@_J1W4af_dtype@@@Z
; class af::array __cdecl af::<struct af::af_cfloat>(struct af::af_cfloat,__int64,enum af_dtype)
??$constant@Uaf_cfloat@af@@@af@@YA?AVarray@0@Uaf_cfloat@0@_JW4af_dtype@@@Z
; class af::array __cdecl af::<struct af_half>(struct af_half,class af::dim4 const &__ptr64 ,enum af_dtype)
??$constant@Uaf_half@@@af@@YA?AVarray@0@Uaf_half@@AEBVdim4@0@W4af_dtype@@@Z
; class af::array __cdecl af::<struct af_half>(struct af_half,__int64,__int64,__int64,__int64,enum af_dtype)
??$constant@Uaf_half@@@af@@YA?AVarray@0@Uaf_half@@_J111W4af_dtype@@@Z
; class af::array __cdecl af::<struct af_half>(struct af_half,__int64,__int64,__int64,enum af_dtype)
??$constant@Uaf_half@@@af@@YA?AVarray@0@Uaf_half@@_J11W4af_dtype@@@Z
; class af::array __cdecl af::<struct af_half>(struct af_half,__int64,__int64,enum af_dtype)
??$constant@Uaf_half@@@af@@YA?AVarray@0@Uaf_half@@_J1W4af_dtype@@@Z
; class af::array __cdecl af::<struct af_half>(struct af_half,__int64,enum af_dtype)
??$constant@Uaf_half@@@af@@YA?AVarray@0@Uaf_half@@_JW4af_dtype@@@Z
; class af::array __cdecl af::<class half_float::half>(class half_float::half,class af::dim4 const &__ptr64 ,enum af_dtype)
??$constant@Vhalf@half_float@@@af@@YA?AVarray@0@Vhalf@half_float@@AEBVdim4@0@W4af_dtype@@@Z
; class af::array __cdecl af::<class half_float::half>(class half_float::half,__int64,__int64,__int64,__int64,enum af_dtype)
??$constant@Vhalf@half_float@@@af@@YA?AVarray@0@Vhalf@half_float@@_J111W4af_dtype@@@Z
; class af::array __cdecl af::<class half_float::half>(class half_float::half,__int64,__int64,__int64,enum af_dtype)
??$constant@Vhalf@half_float@@@af@@YA?AVarray@0@Vhalf@half_float@@_J11W4af_dtype@@@Z
; class af::array __cdecl af::<class half_float::half>(class half_float::half,__int64,__int64,enum af_dtype)
??$constant@Vhalf@half_float@@@af@@YA?AVarray@0@Vhalf@half_float@@_J1W4af_dtype@@@Z
; class af::array __cdecl af::<class half_float::half>(class half_float::half,__int64,enum af_dtype)
??$constant@Vhalf@half_float@@@af@@YA?AVarray@0@Vhalf@half_float@@_JW4af_dtype@@@Z
; class af::array __cdecl af::<__int64>(__int64,class af::dim4 const &__ptr64 ,enum af_dtype)
??$constant@_J@af@@YA?AVarray@0@_JAEBVdim4@0@W4af_dtype@@@Z
; class af::array __cdecl af::<__int64>(__int64,__int64,__int64,__int64,__int64,enum af_dtype)
??$constant@_J@af@@YA?AVarray@0@_J_J111W4af_dtype@@@Z
; class af::array __cdecl af::<__int64>(__int64,__int64,__int64,__int64,enum af_dtype)
??$constant@_J@af@@YA?AVarray@0@_J_J11W4af_dtype@@@Z
; class af::array __cdecl af::<__int64>(__int64,__int64,__int64,enum af_dtype)
??$constant@_J@af@@YA?AVarray@0@_J_J1W4af_dtype@@@Z
; class af::array __cdecl af::<__int64>(__int64,__int64,enum af_dtype)
??$constant@_J@af@@YA?AVarray@0@_J_JW4af_dtype@@@Z
; class af::array __cdecl af::<unsigned __int64>(unsigned __int64,class af::dim4 const &__ptr64 ,enum af_dtype)
??$constant@_K@af@@YA?AVarray@0@_KAEBVdim4@0@W4af_dtype@@@Z
; class af::array __cdecl af::<unsigned __int64>(unsigned __int64,__int64,__int64,__int64,__int64,enum af_dtype)
??$constant@_K@af@@YA?AVarray@0@_K_J111W4af_dtype@@@Z
; class af::array __cdecl af::<unsigned __int64>(unsigned __int64,__int64,__int64,__int64,enum af_dtype)
??$constant@_K@af@@YA?AVarray@0@_K_J11W4af_dtype@@@Z
; class af::array __cdecl af::<unsigned __int64>(unsigned __int64,__int64,__int64,enum af_dtype)
??$constant@_K@af@@YA?AVarray@0@_K_J1W4af_dtype@@@Z
; class af::array __cdecl af::<unsigned __int64>(unsigned __int64,__int64,enum af_dtype)
??$constant@_K@af@@YA?AVarray@0@_K_JW4af_dtype@@@Z
; class af::array __cdecl af::<bool>(bool,class af::dim4 const &__ptr64 ,enum af_dtype)
??$constant@_N@af@@YA?AVarray@0@_NAEBVdim4@0@W4af_dtype@@@Z
; class af::array __cdecl af::<bool>(bool,__int64,__int64,__int64,__int64,enum af_dtype)
??$constant@_N@af@@YA?AVarray@0@_N_J111W4af_dtype@@@Z
; class af::array __cdecl af::<bool>(bool,__int64,__int64,__int64,enum af_dtype)
??$constant@_N@af@@YA?AVarray@0@_N_J11W4af_dtype@@@Z
; class af::array __cdecl af::<bool>(bool,__int64,__int64,enum af_dtype)
??$constant@_N@af@@YA?AVarray@0@_N_J1W4af_dtype@@@Z
; class af::array __cdecl af::<bool>(bool,__int64,enum af_dtype)
??$constant@_N@af@@YA?AVarray@0@_N_JW4af_dtype@@@Z
; signed char __cdecl af::<signed char>(class af::array const &__ptr64 ,class af::array const &__ptr64 )
??$corrcoef@C@af@@YACAEBVarray@0@0@Z
; char __cdecl af::<char>(class af::array const &__ptr64 ,class af::array const &__ptr64 )
??$corrcoef@D@af@@YADAEBVarray@0@0@Z
; unsigned char __cdecl af::<unsigned char>(class af::array const &__ptr64 ,class af::array const &__ptr64 )
??$corrcoef@E@af@@YAEAEBVarray@0@0@Z
; short __cdecl af::<short>(class af::array const &__ptr64 ,class af::array const &__ptr64 )
??$corrcoef@F@af@@YAFAEBVarray@0@0@Z
; unsigned short __cdecl af::<unsigned short>(class af::array const &__ptr64 ,class af::array const &__ptr64 )
??$corrcoef@G@af@@YAGAEBVarray@0@0@Z
; int __cdecl af::<int>(class af::array const &__ptr64 ,class af::array const &__ptr64 )
??$corrcoef@H@af@@YAHAEBVarray@0@0@Z
; unsigned int __cdecl af::<unsigned int>(class af::array const &__ptr64 ,class af::array const &__ptr64 )
??$corrcoef@I@af@@YAIAEBVarray@0@0@Z
; float __cdecl af::<float>(class af::array const &__ptr64 ,class af::array const &__ptr64 )
??$corrcoef@M@af@@YAMAEBVarray@0@0@Z
; double __cdecl af::<double>(class af::array const &__ptr64 ,class af::array const &__ptr64 )
??$corrcoef@N@af@@YANAEBVarray@0@0@Z
; __int64 __cdecl af::<__int64>(class af::array const &__ptr64 ,class af::array const &__ptr64 )
??$corrcoef@_J@af@@YA_JAEBVarray@0@0@Z
; unsigned __int64 __cdecl af::<unsigned __int64>(class af::array const &__ptr64 ,class af::array const &__ptr64 )
??$corrcoef@_K@af@@YA_KAEBVarray@0@0@Z
; signed char __cdecl af::<signed char>(class af::array const &__ptr64 )
??$count@C@af@@YACAEBVarray@0@@Z
; char __cdecl af::<char>(class af::array const &__ptr64 )
??$count@D@af@@YADAEBVarray@0@@Z
; unsigned char __cdecl af::<unsigned char>(class af::array const &__ptr64 )
??$count@E@af@@YAEAEBVarray@0@@Z
; short __cdecl af::<short>(class af::array const &__ptr64 )
??$count@F@af@@YAFAEBVarray@0@@Z
; unsigned short __cdecl af::<unsigned short>(class af::array const &__ptr64 )
??$count@G@af@@YAGAEBVarray@0@@Z
; int __cdecl af::<int>(class af::array const &__ptr64 )
??$count@H@af@@YAHAEBVarray@0@@Z
; unsigned int __cdecl af::<unsigned int>(class af::array const &__ptr64 )
??$count@I@af@@YAIAEBVarray@0@@Z
; long __cdecl af::<long>(class af::array const &__ptr64 )
??$count@J@af@@YAJAEBVarray@0@@Z
; unsigned long __cdecl af::<unsigned long>(class af::array const &__ptr64 )
??$count@K@af@@YAKAEBVarray@0@@Z
; float __cdecl af::<float>(class af::array const &__ptr64 )
??$count@M@af@@YAMAEBVarray@0@@Z
; double __cdecl af::<double>(class af::array const &__ptr64 )
??$count@N@af@@YANAEBVarray@0@@Z
; struct af::af_cdouble __cdecl af::<struct af::af_cdouble>(class af::array const &__ptr64 )
??$count@Uaf_cdouble@af@@@af@@YA?AUaf_cdouble@0@AEBVarray@0@@Z
; struct af::af_cfloat __cdecl af::<struct af::af_cfloat>(class af::array const &__ptr64 )
??$count@Uaf_cfloat@af@@@af@@YA?AUaf_cfloat@0@AEBVarray@0@@Z
; class af::array __cdecl af::<class af::array>(class af::array const &__ptr64 )
??$count@Varray@af@@@af@@YA?AVarray@0@AEBV10@@Z
; __int64 __cdecl af::<__int64>(class af::array const &__ptr64 )
??$count@_J@af@@YA_JAEBVarray@0@@Z
; unsigned __int64 __cdecl af::<unsigned __int64>(class af::array const &__ptr64 )
??$count@_K@af@@YA_KAEBVarray@0@@Z
; float __cdecl af::<float>(class af::array const &__ptr64 )
??$det@M@af@@YAMAEBVarray@0@@Z
; double __cdecl af::<double>(class af::array const &__ptr64 )
??$det@N@af@@YANAEBVarray@0@@Z
; struct af::af_cdouble __cdecl af::<struct af::af_cdouble>(class af::array const &__ptr64 )
??$det@Uaf_cdouble@af@@@af@@YA?AUaf_cdouble@0@AEBVarray@0@@Z
; struct af::af_cfloat __cdecl af::<struct af::af_cfloat>(class af::array const &__ptr64 )
??$det@Uaf_cfloat@af@@@af@@YA?AUaf_cfloat@0@AEBVarray@0@@Z
; public: signed char *__ptr64 __cdecl af::array::<signed char>(void)const __ptr64 
??$device@C@array@af@@QEBAPEACXZ
; public: signed char *__ptr64 __cdecl af::array::array_proxy::<signed char>(void)const __ptr64 
??$device@C@array_proxy@array@af@@QEBAPEACXZ
; public: char *__ptr64 __cdecl af::array::<char>(void)const __ptr64 
??$device@D@array@af@@QEBAPEADXZ
; public: char *__ptr64 __cdecl af::array::array_proxy::<char>(void)const __ptr64 
??$device@D@array_proxy@array@af@@QEBAPEADXZ
; public: unsigned char *__ptr64 __cdecl af::array::<unsigned char>(void)const __ptr64 
??$device@E@array@af@@QEBAPEAEXZ
; public: unsigned char *__ptr64 __cdecl af::array::array_proxy::<unsigned char>(void)const __ptr64 
??$device@E@array_proxy@array@af@@QEBAPEAEXZ
; public: short *__ptr64 __cdecl af::array::<short>(void)const __ptr64 
??$device@F@array@af@@QEBAPEAFXZ
; public: short *__ptr64 __cdecl af::array::array_proxy::<short>(void)const __ptr64 
??$device@F@array_proxy@array@af@@QEBAPEAFXZ
; public: unsigned short *__ptr64 __cdecl af::array::<unsigned short>(void)const __ptr64 
??$device@G@array@af@@QEBAPEAGXZ
; public: unsigned short *__ptr64 __cdecl af::array::array_proxy::<unsigned short>(void)const __ptr64 
??$device@G@array_proxy@array@af@@QEBAPEAGXZ
; public: int *__ptr64 __cdecl af::array::<int>(void)const __ptr64 
??$device@H@array@af@@QEBAPEAHXZ
; public: int *__ptr64 __cdecl af::array::array_proxy::<int>(void)const __ptr64 
??$device@H@array_proxy@array@af@@QEBAPEAHXZ
; public: unsigned int *__ptr64 __cdecl af::array::<unsigned int>(void)const __ptr64 
??$device@I@array@af@@QEBAPEAIXZ
; public: unsigned int *__ptr64 __cdecl af::array::array_proxy::<unsigned int>(void)const __ptr64 
??$device@I@array_proxy@array@af@@QEBAPEAIXZ
; public: float *__ptr64 __cdecl af::array::<float>(void)const __ptr64 
??$device@M@array@af@@QEBAPEAMXZ
; public: float *__ptr64 __cdecl af::array::array_proxy::<float>(void)const __ptr64 
??$device@M@array_proxy@array@af@@QEBAPEAMXZ
; public: double *__ptr64 __cdecl af::array::<double>(void)const __ptr64 
??$device@N@array@af@@QEBAPEANXZ
; public: double *__ptr64 __cdecl af::array::array_proxy::<double>(void)const __ptr64 
??$device@N@array_proxy@array@af@@QEBAPEANXZ
; public: struct af::af_cdouble *__ptr64 __cdecl af::array::<struct af::af_cdouble>(void)const __ptr64 
??$device@Uaf_cdouble@af@@@array@af@@QEBAPEAUaf_cdouble@1@XZ
; public: struct af::af_cdouble *__ptr64 __cdecl af::array::array_proxy::<struct af::af_cdouble>(void)const __ptr64 
??$device@Uaf_cdouble@af@@@array_proxy@array@af@@QEBAPEAUaf_cdouble@2@XZ
; public: struct af::af_cfloat *__ptr64 __cdecl af::array::<struct af::af_cfloat>(void)const __ptr64 
??$device@Uaf_cfloat@af@@@array@af@@QEBAPEAUaf_cfloat@1@XZ
; public: struct af::af_cfloat *__ptr64 __cdecl af::array::array_proxy::<struct af::af_cfloat>(void)const __ptr64 
??$device@Uaf_cfloat@af@@@array_proxy@array@af@@QEBAPEAUaf_cfloat@2@XZ
; public: struct af_half *__ptr64 __cdecl af::array::<struct af_half>(void)const __ptr64 
??$device@Uaf_half@@@array@af@@QEBAPEAUaf_half@@XZ
; public: struct af_half *__ptr64 __cdecl af::array::array_proxy::<struct af_half>(void)const __ptr64 
??$device@Uaf_half@@@array_proxy@array@af@@QEBAPEAUaf_half@@XZ
; public: class half_float::half *__ptr64 __cdecl af::array::<class half_float::half>(void)const __ptr64 
??$device@Vhalf@half_float@@@array@af@@QEBAPEAVhalf@half_float@@XZ
; public: class half_float::half *__ptr64 __cdecl af::array::array_proxy::<class half_float::half>(void)const __ptr64 
??$device@Vhalf@half_float@@@array_proxy@array@af@@QEBAPEAVhalf@half_float@@XZ
; public: void *__ptr64 __cdecl af::array::<void>(void)const __ptr64 
??$device@X@array@af@@QEBAPEAXXZ
; public: __int64 *__ptr64 __cdecl af::array::<__int64>(void)const __ptr64 
??$device@_J@array@af@@QEBAPEA_JXZ
; public: __int64 *__ptr64 __cdecl af::array::array_proxy::<__int64>(void)const __ptr64 
??$device@_J@array_proxy@array@af@@QEBAPEA_JXZ
; public: unsigned __int64 *__ptr64 __cdecl af::array::<unsigned __int64>(void)const __ptr64 
??$device@_K@array@af@@QEBAPEA_KXZ
; public: unsigned __int64 *__ptr64 __cdecl af::array::array_proxy::<unsigned __int64>(void)const __ptr64 
??$device@_K@array_proxy@array@af@@QEBAPEA_KXZ
; float __cdecl af::<float>(class af::array const &__ptr64 ,class af::array const &__ptr64 ,enum af_mat_prop,enum af_mat_prop)
??$dot@M@af@@YAMAEBVarray@0@0W4af_mat_prop@@1@Z
; double __cdecl af::<double>(class af::array const &__ptr64 ,class af::array const &__ptr64 ,enum af_mat_prop,enum af_mat_prop)
??$dot@N@af@@YANAEBVarray@0@0W4af_mat_prop@@1@Z
; struct af::af_cdouble __cdecl af::<struct af::af_cdouble>(class af::array const &__ptr64 ,class af::array const &__ptr64 ,enum af_mat_prop,enum af_mat_prop)
??$dot@Uaf_cdouble@af@@@af@@YA?AUaf_cdouble@0@AEBVarray@0@0W4af_mat_prop@@1@Z
; struct af::af_cfloat __cdecl af::<struct af::af_cfloat>(class af::array const &__ptr64 ,class af::array const &__ptr64 ,enum af_mat_prop,enum af_mat_prop)
??$dot@Uaf_cfloat@af@@@af@@YA?AUaf_cfloat@0@AEBVarray@0@0W4af_mat_prop@@1@Z
; class af::array __cdecl af::<0x1ULL>(class af::array const &__ptr64 ,bool,double)
??$fftC2R@$00@af@@YA?AVarray@0@AEBV10@_NN@Z
; class af::array __cdecl af::<0x2ULL>(class af::array const &__ptr64 ,bool,double)
??$fftC2R@$01@af@@YA?AVarray@0@AEBV10@_NN@Z
; class af::array __cdecl af::<0x3ULL>(class af::array const &__ptr64 ,bool,double)
??$fftC2R@$02@af@@YA?AVarray@0@AEBV10@_NN@Z
; class af::array __cdecl af::<0x1ULL>(class af::array const &__ptr64 ,class af::dim4 const &__ptr64 ,double)
??$fftR2C@$00@af@@YA?AVarray@0@AEBV10@AEBVdim4@0@N@Z
; class af::array __cdecl af::<0x1ULL>(class af::array const &__ptr64 ,double)
??$fftR2C@$00@af@@YA?AVarray@0@AEBV10@N@Z
; class af::array __cdecl af::<0x2ULL>(class af::array const &__ptr64 ,class af::dim4 const &__ptr64 ,double)
??$fftR2C@$01@af@@YA?AVarray@0@AEBV10@AEBVdim4@0@N@Z
; class af::array __cdecl af::<0x2ULL>(class af::array const &__ptr64 ,double)
??$fftR2C@$01@af@@YA?AVarray@0@AEBV10@N@Z
; class af::array __cdecl af::<0x3ULL>(class af::array const &__ptr64 ,class af::dim4 const &__ptr64 ,double)
??$fftR2C@$02@af@@YA?AVarray@0@AEBV10@AEBVdim4@0@N@Z
; class af::array __cdecl af::<0x3ULL>(class af::array const &__ptr64 ,double)
??$fftR2C@$02@af@@YA?AVarray@0@AEBV10@N@Z
; public: signed char *__ptr64 __cdecl af::array::<signed char>(void)const __ptr64 
??$host@C@array@af@@QEBAPEACXZ
; public: signed char *__ptr64 __cdecl af::array::array_proxy::<signed char>(void)const __ptr64 
??$host@C@array_proxy@array@af@@QEBAPEACXZ
; public: char *__ptr64 __cdecl af::array::<char>(void)const __ptr64 
??$host@D@array@af@@QEBAPEADXZ
; public: char *__ptr64 __cdecl af::array::array_proxy::<char>(void)const __ptr64 
??$host@D@array_proxy@array@af@@QEBAPEADXZ
; public: unsigned char *__ptr64 __cdecl af::array::<unsigned char>(void)const __ptr64 
??$host@E@array@af@@QEBAPEAEXZ
; public: unsigned char *__ptr64 __cdecl af::array::array_proxy::<unsigned char>(void)const __ptr64 
??$host@E@array_proxy@array@af@@QEBAPEAEXZ
; public: short *__ptr64 __cdecl af::array::<short>(void)const __ptr64 
??$host@F@array@af@@QEBAPEAFXZ
; public: short *__ptr64 __cdecl af::array::array_proxy::<short>(void)const __ptr64 
??$host@F@array_proxy@array@af@@QEBAPEAFXZ
; public: unsigned short *__ptr64 __cdecl af::array::<unsigned short>(void)const __ptr64 
??$host@G@array@af@@QEBAPEAGXZ
; public: unsigned short *__ptr64 __cdecl af::array::array_proxy::<unsigned short>(void)const __ptr64 
??$host@G@array_proxy@array@af@@QEBAPEAGXZ
; public: int *__ptr64 __cdecl af::array::<int>(void)const __ptr64 
??$host@H@array@af@@QEBAPEAHXZ
; public: int *__ptr64 __cdecl af::array::array_proxy::<int>(void)const __ptr64 
??$host@H@array_proxy@array@af@@QEBAPEAHXZ
; public: unsigned int *__ptr64 __cdecl af::array::<unsigned int>(void)const __ptr64 
??$host@I@array@af@@QEBAPEAIXZ
; public: unsigned int *__ptr64 __cdecl af::array::array_proxy::<unsigned int>(void)const __ptr64 
??$host@I@array_proxy@array@af@@QEBAPEAIXZ
; public: float *__ptr64 __cdecl af::array::<float>(void)const __ptr64 
??$host@M@array@af@@QEBAPEAMXZ
; public: float *__ptr64 __cdecl af::array::array_proxy::<float>(void)const __ptr64 
??$host@M@array_proxy@array@af@@QEBAPEAMXZ
; public: double *__ptr64 __cdecl af::array::<double>(void)const __ptr64 
??$host@N@array@af@@QEBAPEANXZ
; public: double *__ptr64 __cdecl af::array::array_proxy::<double>(void)const __ptr64 
??$host@N@array_proxy@array@af@@QEBAPEANXZ
; public: struct af::af_cdouble *__ptr64 __cdecl af::array::<struct af::af_cdouble>(void)const __ptr64 
??$host@Uaf_cdouble@af@@@array@af@@QEBAPEAUaf_cdouble@1@XZ
; public: struct af::af_cdouble *__ptr64 __cdecl af::array::array_proxy::<struct af::af_cdouble>(void)const __ptr64 
??$host@Uaf_cdouble@af@@@array_proxy@array@af@@QEBAPEAUaf_cdouble@2@XZ
; public: struct af::af_cfloat *__ptr64 __cdecl af::array::<struct af::af_cfloat>(void)const __ptr64 
??$host@Uaf_cfloat@af@@@array@af@@QEBAPEAUaf_cfloat@1@XZ
; public: struct af::af_cfloat *__ptr64 __cdecl af::array::array_proxy::<struct af::af_cfloat>(void)const __ptr64 
??$host@Uaf_cfloat@af@@@array_proxy@array@af@@QEBAPEAUaf_cfloat@2@XZ
; public: struct af_half *__ptr64 __cdecl af::array::<struct af_half>(void)const __ptr64 
??$host@Uaf_half@@@array@af@@QEBAPEAUaf_half@@XZ
; public: struct af_half *__ptr64 __cdecl af::array::array_proxy::<struct af_half>(void)const __ptr64 
??$host@Uaf_half@@@array_proxy@array@af@@QEBAPEAUaf_half@@XZ
; public: class half_float::half *__ptr64 __cdecl af::array::<class half_float::half>(void)const __ptr64 
??$host@Vhalf@half_float@@@array@af@@QEBAPEAVhalf@half_float@@XZ
; public: class half_float::half *__ptr64 __cdecl af::array::array_proxy::<class half_float::half>(void)const __ptr64 
??$host@Vhalf@half_float@@@array_proxy@array@af@@QEBAPEAVhalf@half_float@@XZ
; public: __int64 *__ptr64 __cdecl af::array::<__int64>(void)const __ptr64 
??$host@_J@array@af@@QEBAPEA_JXZ
; public: __int64 *__ptr64 __cdecl af::array::array_proxy::<__int64>(void)const __ptr64 
??$host@_J@array_proxy@array@af@@QEBAPEA_JXZ
; public: unsigned __int64 *__ptr64 __cdecl af::array::<unsigned __int64>(void)const __ptr64 
??$host@_K@array@af@@QEBAPEA_KXZ
; public: unsigned __int64 *__ptr64 __cdecl af::array::array_proxy::<unsigned __int64>(void)const __ptr64 
??$host@_K@array_proxy@array@af@@QEBAPEA_KXZ
; signed char __cdecl af::<signed char>(class af::array const &__ptr64 )
??$max@C@af@@YACAEBVarray@0@@Z
; void __cdecl af::<signed char>(signed char *__ptr64,unsigned int *__ptr64,class af::array const &__ptr64 )
??$max@C@af@@YAXPEACPEAIAEBVarray@0@@Z
; char __cdecl af::<char>(class af::array const &__ptr64 )
??$max@D@af@@YADAEBVarray@0@@Z
; void __cdecl af::<char>(char *__ptr64,unsigned int *__ptr64,class af::array const &__ptr64 )
??$max@D@af@@YAXPEADPEAIAEBVarray@0@@Z
; unsigned char __cdecl af::<unsigned char>(class af::array const &__ptr64 )
??$max@E@af@@YAEAEBVarray@0@@Z
; void __cdecl af::<unsigned char>(unsigned char *__ptr64,unsigned int *__ptr64,class af::array const &__ptr64 )
??$max@E@af@@YAXPEAEPEAIAEBVarray@0@@Z
; short __cdecl af::<short>(class af::array const &__ptr64 )
??$max@F@af@@YAFAEBVarray@0@@Z
; void __cdecl af::<short>(short *__ptr64,unsigned int *__ptr64,class af::array const &__ptr64 )
??$max@F@af@@YAXPEAFPEAIAEBVarray@0@@Z
; unsigned short __cdecl af::<unsigned short>(class af::array const &__ptr64 )
??$max@G@af@@YAGAEBVarray@0@@Z
; void __cdecl af::<unsigned short>(unsigned short *__ptr64,unsigned int *__ptr64,class af::array const &__ptr64 )
??$max@G@af@@YAXPEAGPEAIAEBVarray@0@@Z
; int __cdecl af::<int>(class af::array const &__ptr64 )
??$max@H@af@@YAHAEBVarray@0@@Z
; void __cdecl af::<int>(int *__ptr64,unsigned int *__ptr64,class af::array const &__ptr64 )
??$max@H@af@@YAXPEAHPEAIAEBVarray@0@@Z
; unsigned int __cdecl af::<unsigned int>(class af::array const &__ptr64 )
??$max@I@af@@YAIAEBVarray@0@@Z
; void __cdecl af::<unsigned int>(unsigned int *__ptr64,unsigned int *__ptr64,class af::array const &__ptr64 )
??$max@I@af@@YAXPEAI0AEBVarray@0@@Z
; long __cdecl af::<long>(class af::array const &__ptr64 )
??$max@J@af@@YAJAEBVarray@0@@Z
; unsigned long __cdecl af::<unsigned long>(class af::array const &__ptr64 )
??$max@K@af@@YAKAEBVarray@0@@Z
; float __cdecl af::<float>(class af::array const &__ptr64 )
??$max@M@af@@YAMAEBVarray@0@@Z
; void __cdecl af::<float>(float *__ptr64,unsigned int *__ptr64,class af::array const &__ptr64 )
??$max@M@af@@YAXPEAMPEAIAEBVarray@0@@Z
; double __cdecl af::<double>(class af::array const &__ptr64 )
??$max@N@af@@YANAEBVarray@0@@Z
; void __cdecl af::<double>(double *__ptr64,unsigned int *__ptr64,class af::array const &__ptr64 )
??$max@N@af@@YAXPEANPEAIAEBVarray@0@@Z
; struct af::af_cdouble __cdecl af::<struct af::af_cdouble>(class af::array const &__ptr64 )
??$max@Uaf_cdouble@af@@@af@@YA?AUaf_cdouble@0@AEBVarray@0@@Z
; void __cdecl af::<struct af::af_cdouble>(struct af::af_cdouble *__ptr64,unsigned int *__ptr64,class af::array const &__ptr64 )
??$max@Uaf_cdouble@af@@@af@@YAXPEAUaf_cdouble@0@PEAIAEBVarray@0@@Z
; struct af::af_cfloat __cdecl af::<struct af::af_cfloat>(class af::array const &__ptr64 )
??$max@Uaf_cfloat@af@@@af@@YA?AUaf_cfloat@0@AEBVarray@0@@Z
; void __cdecl af::<struct af::af_cfloat>(struct af::af_cfloat *__ptr64,unsigned int *__ptr64,class af::array const &__ptr64 )
??$max@Uaf_cfloat@af@@@af@@YAXPEAUaf_cfloat@0@PEAIAEBVarray@0@@Z
; class af::array __cdecl af::<class af::array>(class af::array const &__ptr64 )
??$max@Varray@af@@@af@@YA?AVarray@0@AEBV10@@Z
; __int64 __cdecl af::<__int64>(class af::array const &__ptr64 )
??$max@_J@af@@YA_JAEBVarray@0@@Z
; unsigned __int64 __cdecl af::<unsigned __int64>(class af::array const &__ptr64 )
??$max@_K@af@@YA_KAEBVarray@0@@Z
; signed char __cdecl af::<signed char>(class af::array const &__ptr64 ,class af::array const &__ptr64 )
??$mean@C@af@@YACAEBVarray@0@0@Z
; signed char __cdecl af::<signed char>(class af::array const &__ptr64 )
??$mean@C@af@@YACAEBVarray@0@@Z
; char __cdecl af::<char>(class af::array const &__ptr64 ,class af::array const &__ptr64 )
??$mean@D@af@@YADAEBVarray@0@0@Z
; char __cdecl af::<char>(class af::array const &__ptr64 )
??$mean@D@af@@YADAEBVarray@0@@Z
; unsigned char __cdecl af::<unsigned char>(class af::array const &__ptr64 ,class af::array const &__ptr64 )
??$mean@E@af@@YAEAEBVarray@0@0@Z
; unsigned char __cdecl af::<unsigned char>(class af::array const &__ptr64 )
??$mean@E@af@@YAEAEBVarray@0@@Z
; short __cdecl af::<short>(class af::array const &__ptr64 ,class af::array const &__ptr64 )
??$mean@F@af@@YAFAEBVarray@0@0@Z
; short __cdecl af::<short>(class af::array const &__ptr64 )
??$mean@F@af@@YAFAEBVarray@0@@Z
; unsigned short __cdecl af::<unsigned short>(class af::array const &__ptr64 ,class af::array const &__ptr64 )
??$mean@G@af@@YAGAEBVarray@0@0@Z
; unsigned short __cdecl af::<unsigned short>(class af::array const &__ptr64 )
??$mean@G@af@@YAGAEBVarray@0@@Z
; int __cdecl af::<int>(class af::array const &__ptr64 ,class af::array const &__ptr64 )
??$mean@H@af@@YAHAEBVarray@0@0@Z
; int __cdecl af::<int>(class af::array const &__ptr64 )
??$mean@H@af@@YAHAEBVarray@0@@Z
; unsigned int __cdecl af::<unsigned int>(class af::array const &__ptr64 ,class af::array const &__ptr64 )
??$mean@I@af@@YAIAEBVarray@0@0@Z
; unsigned int __cdecl af::<unsigned int>(class af::array const &__ptr64 )
??$mean@I@af@@YAIAEBVarray@0@@Z
; float __cdecl af::<float>(class af::array const &__ptr64 ,class af::array const &__ptr64 )
??$mean@M@af@@YAMAEBVarray@0@0@Z
; float __cdecl af::<float>(class af::array const &__ptr64 )
??$mean@M@af@@YAMAEBVarray@0@@Z
; double __cdecl af::<double>(class af::array const &__ptr64 ,class af::array const &__ptr64 )
??$mean@N@af@@YANAEBVarray@0@0@Z
; double __cdecl af::<double>(class af::array const &__ptr64 )
??$mean@N@af@@YANAEBVarray@0@@Z
; struct af::af_cdouble __cdecl af::<struct af::af_cdouble>(class af::array const &__ptr64 ,class af::array const &__ptr64 )
??$mean@Uaf_cdouble@af@@@af@@YA?AUaf_cdouble@0@AEBVarray@0@0@Z
; struct af::af_cdouble __cdecl af::<struct af::af_cdouble>(class af::array const &__ptr64 )
??$mean@Uaf_cdouble@af@@@af@@YA?AUaf_cdouble@0@AEBVarray@0@@Z
; struct af::af_cfloat __cdecl af::<struct af::af_cfloat>(class af::array const &__ptr64 ,class af::array const &__ptr64 )
??$mean@Uaf_cfloat@af@@@af@@YA?AUaf_cfloat@0@AEBVarray@0@0@Z
; struct af::af_cfloat __cdecl af::<struct af::af_cfloat>(class af::array const &__ptr64 )
??$mean@Uaf_cfloat@af@@@af@@YA?AUaf_cfloat@0@AEBVarray@0@@Z
; struct af_half __cdecl af::<struct af_half>(class af::array const &__ptr64 ,class af::array const &__ptr64 )
??$mean@Uaf_half@@@af@@YA?AUaf_half@@AEBVarray@0@0@Z
; struct af_half __cdecl af::<struct af_half>(class af::array const &__ptr64 )
??$mean@Uaf_half@@@af@@YA?AUaf_half@@AEBVarray@0@@Z
; class half_float::half __cdecl af::<class half_float::half>(class af::array const &__ptr64 ,class af::array const &__ptr64 )
??$mean@Vhalf@half_float@@@af@@YA?AVhalf@half_float@@AEBVarray@0@0@Z
; class half_float::half __cdecl af::<class half_float::half>(class af::array const &__ptr64 )
??$mean@Vhalf@half_float@@@af@@YA?AVhalf@half_float@@AEBVarray@0@@Z
; __int64 __cdecl af::<__int64>(class af::array const &__ptr64 ,class af::array const &__ptr64 )
??$mean@_J@af@@YA_JAEBVarray@0@0@Z
; __int64 __cdecl af::<__int64>(class af::array const &__ptr64 )
??$mean@_J@af@@YA_JAEBVarray@0@@Z
; unsigned __int64 __cdecl af::<unsigned __int64>(class af::array const &__ptr64 ,class af::array const &__ptr64 )
??$mean@_K@af@@YA_KAEBVarray@0@0@Z
; unsigned __int64 __cdecl af::<unsigned __int64>(class af::array const &__ptr64 )
??$mean@_K@af@@YA_KAEBVarray@0@@Z
; signed char __cdecl af::<signed char>(class af::array const &__ptr64 )
??$median@C@af@@YACAEBVarray@0@@Z
; char __cdecl af::<char>(class af::array const &__ptr64 )
??$median@D@af@@YADAEBVarray@0@@Z
; unsigned char __cdecl af::<unsigned char>(class af::array const &__ptr64 )
??$median@E@af@@YAEAEBVarray@0@@Z
; short __cdecl af::<short>(class af::array const &__ptr64 )
??$median@F@af@@YAFAEBVarray@0@@Z
; unsigned short __cdecl af::<unsigned short>(class af::array const &__ptr64 )
??$median@G@af@@YAGAEBVarray@0@@Z
; int __cdecl af::<int>(class af::array const &__ptr64 )
??$median@H@af@@YAHAEBVarray@0@@Z
; unsigned int __cdecl af::<unsigned int>(class af::array const &__ptr64 )
??$median@I@af@@YAIAEBVarray@0@@Z
; float __cdecl af::<float>(class af::array const &__ptr64 )
??$median@M@af@@YAMAEBVarray@0@@Z
; double __cdecl af::<double>(class af::array const &__ptr64 )
??$median@N@af@@YANAEBVarray@0@@Z
; __int64 __cdecl af::<__int64>(class af::array const &__ptr64 )
??$median@_J@af@@YA_JAEBVarray@0@@Z
; unsigned __int64 __cdecl af::<unsigned __int64>(class af::array const &__ptr64 )
??$median@_K@af@@YA_KAEBVarray@0@@Z
; signed char __cdecl af::<signed char>(class af::array const &__ptr64 )
??$min@C@af@@YACAEBVarray@0@@Z
; void __cdecl af::<signed char>(signed char *__ptr64,unsigned int *__ptr64,class af::array const &__ptr64 )
??$min@C@af@@YAXPEACPEAIAEBVarray@0@@Z
; char __cdecl af::<char>(class af::array const &__ptr64 )
??$min@D@af@@YADAEBVarray@0@@Z
; void __cdecl af::<char>(char *__ptr64,unsigned int *__ptr64,class af::array const &__ptr64 )
??$min@D@af@@YAXPEADPEAIAEBVarray@0@@Z
; unsigned char __cdecl af::<unsigned char>(class af::array const &__ptr64 )
??$min@E@af@@YAEAEBVarray@0@@Z
; void __cdecl af::<unsigned char>(unsigned char *__ptr64,unsigned int *__ptr64,class af::array const &__ptr64 )
??$min@E@af@@YAXPEAEPEAIAEBVarray@0@@Z
; short __cdecl af::<short>(class af::array const &__ptr64 )
??$min@F@af@@YAFAEBVarray@0@@Z
; void __cdecl af::<short>(short *__ptr64,unsigned int *__ptr64,class af::array const &__ptr64 )
??$min@F@af@@YAXPEAFPEAIAEBVarray@0@@Z
; unsigned short __cdecl af::<unsigned short>(class af::array const &__ptr64 )
??$min@G@af@@YAGAEBVarray@0@@Z
; void __cdecl af::<unsigned short>(unsigned short *__ptr64,unsigned int *__ptr64,class af::array const &__ptr64 )
??$min@G@af@@YAXPEAGPEAIAEBVarray@0@@Z
; int __cdecl af::<int>(class af::array const &__ptr64 )
??$min@H@af@@YAHAEBVarray@0@@Z
; void __cdecl af::<int>(int *__ptr64,unsigned int *__ptr64,class af::array const &__ptr64 )
??$min@H@af@@YAXPEAHPEAIAEBVarray@0@@Z
; unsigned int __cdecl af::<unsigned int>(class af::array const &__ptr64 )
??$min@I@af@@YAIAEBVarray@0@@Z
; void __cdecl af::<unsigned int>(unsigned int *__ptr64,unsigned int *__ptr64,class af::array const &__ptr64 )
??$min@I@af@@YAXPEAI0AEBVarray@0@@Z
; long __cdecl af::<long>(class af::array const &__ptr64 )
??$min@J@af@@YAJAEBVarray@0@@Z
; unsigned long __cdecl af::<unsigned long>(class af::array const &__ptr64 )
??$min@K@af@@YAKAEBVarray@0@@Z
; float __cdecl af::<float>(class af::array const &__ptr64 )
??$min@M@af@@YAMAEBVarray@0@@Z
; void __cdecl af::<float>(float *__ptr64,unsigned int *__ptr64,class af::array const &__ptr64 )
??$min@M@af@@YAXPEAMPEAIAEBVarray@0@@Z
; double __cdecl af::<double>(class af::array const &__ptr64 )
??$min@N@af@@YANAEBVarray@0@@Z
; void __cdecl af::<double>(double *__ptr64,unsigned int *__ptr64,class af::array const &__ptr64 )
??$min@N@af@@YAXPEANPEAIAEBVarray@0@@Z
; struct af::af_cdouble __cdecl af::<struct af::af_cdouble>(class af::array const &__ptr64 )
??$min@Uaf_cdouble@af@@@af@@YA?AUaf_cdouble@0@AEBVarray@0@@Z
; void __cdecl af::<struct af::af_cdouble>(struct af::af_cdouble *__ptr64,unsigned int *__ptr64,class af::array const &__ptr64 )
??$min@Uaf_cdouble@af@@@af@@YAXPEAUaf_cdouble@0@PEAIAEBVarray@0@@Z
; struct af::af_cfloat __cdecl af::<struct af::af_cfloat>(class af::array const &__ptr64 )
??$min@Uaf_cfloat@af@@@af@@YA?AUaf_cfloat@0@AEBVarray@0@@Z
; void __cdecl af::<struct af::af_cfloat>(struct af::af_cfloat *__ptr64,unsigned int *__ptr64,class af::array const &__ptr64 )
??$min@Uaf_cfloat@af@@@af@@YAXPEAUaf_cfloat@0@PEAIAEBVarray@0@@Z
; class af::array __cdecl af::<class af::array>(class af::array const &__ptr64 )
??$min@Varray@af@@@af@@YA?AVarray@0@AEBV10@@Z
; __int64 __cdecl af::<__int64>(class af::array const &__ptr64 )
??$min@_J@af@@YA_JAEBVarray@0@@Z
; unsigned __int64 __cdecl af::<unsigned __int64>(class af::array const &__ptr64 )
??$min@_K@af@@YA_KAEBVarray@0@@Z
; signed char __cdecl af::<signed char>(class af::array const &__ptr64 )
??$mul@C@af@@YACAEBVarray@0@@Z
; char __cdecl af::<char>(class af::array const &__ptr64 )
??$mul@D@af@@YADAEBVarray@0@@Z
; unsigned char __cdecl af::<unsigned char>(class af::array const &__ptr64 )
??$mul@E@af@@YAEAEBVarray@0@@Z
; short __cdecl af::<short>(class af::array const &__ptr64 )
??$mul@F@af@@YAFAEBVarray@0@@Z
; unsigned short __cdecl af::<unsigned short>(class af::array const &__ptr64 )
??$mul@G@af@@YAGAEBVarray@0@@Z
; int __cdecl af::<int>(class af::array const &__ptr64 )
??$mul@H@af@@YAHAEBVarray@0@@Z
; unsigned int __cdecl af::<unsigned int>(class af::array const &__ptr64 )
??$mul@I@af@@YAIAEBVarray@0@@Z
; long __cdecl af::<long>(class af::array const &__ptr64 )
??$mul@J@af@@YAJAEBVarray@0@@Z
; unsigned long __cdecl af::<unsigned long>(class af::array const &__ptr64 )
??$mul@K@af@@YAKAEBVarray@0@@Z
; float __cdecl af::<float>(class af::array const &__ptr64 )
??$mul@M@af@@YAMAEBVarray@0@@Z
; double __cdecl af::<double>(class af::array const &__ptr64 )
??$mul@N@af@@YANAEBVarray@0@@Z
; struct af::af_cdouble __cdecl af::<struct af::af_cdouble>(class af::array const &__ptr64 )
??$mul@Uaf_cdouble@af@@@af@@YA?AUaf_cdouble@0@AEBVarray@0@@Z
; struct af::af_cfloat __cdecl af::<struct af::af_cfloat>(class af::array const &__ptr64 )
??$mul@Uaf_cfloat@af@@@af@@YA?AUaf_cfloat@0@AEBVarray@0@@Z
; __int64 __cdecl af::<__int64>(class af::array const &__ptr64 )
??$mul@_J@af@@YA_JAEBVarray@0@@Z
; unsigned __int64 __cdecl af::<unsigned __int64>(class af::array const &__ptr64 )
??$mul@_K@af@@YA_KAEBVarray@0@@Z
; signed char *__ptr64 __cdecl af::<signed char>(unsigned __int64)
??$pinned@C@af@@YAPEAC_K@Z
; char *__ptr64 __cdecl af::<char>(unsigned __int64)
??$pinned@D@af@@YAPEAD_K@Z
; unsigned char *__ptr64 __cdecl af::<unsigned char>(unsigned __int64)
??$pinned@E@af@@YAPEAE_K@Z
; short *__ptr64 __cdecl af::<short>(unsigned __int64)
??$pinned@F@af@@YAPEAF_K@Z
; unsigned short *__ptr64 __cdecl af::<unsigned short>(unsigned __int64)
??$pinned@G@af@@YAPEAG_K@Z
; int *__ptr64 __cdecl af::<int>(unsigned __int64)
??$pinned@H@af@@YAPEAH_K@Z
; unsigned int *__ptr64 __cdecl af::<unsigned int>(unsigned __int64)
??$pinned@I@af@@YAPEAI_K@Z
; float *__ptr64 __cdecl af::<float>(unsigned __int64)
??$pinned@M@af@@YAPEAM_K@Z
; double *__ptr64 __cdecl af::<double>(unsigned __int64)
??$pinned@N@af@@YAPEAN_K@Z
; struct af::af_cdouble *__ptr64 __cdecl af::<struct af::af_cdouble>(unsigned __int64)
??$pinned@Uaf_cdouble@af@@@af@@YAPEAUaf_cdouble@0@_K@Z
; struct af::af_cfloat *__ptr64 __cdecl af::<struct af::af_cfloat>(unsigned __int64)
??$pinned@Uaf_cfloat@af@@@af@@YAPEAUaf_cfloat@0@_K@Z
; __int64 *__ptr64 __cdecl af::<__int64>(unsigned __int64)
??$pinned@_J@af@@YAPEA_J_K@Z
; unsigned __int64 *__ptr64 __cdecl af::<unsigned __int64>(unsigned __int64)
??$pinned@_K@af@@YAPEA_K_K@Z
; signed char __cdecl af::<signed char>(class af::array const &__ptr64 )
??$product@C@af@@YACAEBVarray@0@@Z
; signed char __cdecl af::<signed char>(class af::array const &__ptr64 ,double)
??$product@C@af@@YACAEBVarray@0@N@Z
; char __cdecl af::<char>(class af::array const &__ptr64 )
??$product@D@af@@YADAEBVarray@0@@Z
; char __cdecl af::<char>(class af::array const &__ptr64 ,double)
??$product@D@af@@YADAEBVarray@0@N@Z
; unsigned char __cdecl af::<unsigned char>(class af::array const &__ptr64 )
??$product@E@af@@YAEAEBVarray@0@@Z
; unsigned char __cdecl af::<unsigned char>(class af::array const &__ptr64 ,double)
??$product@E@af@@YAEAEBVarray@0@N@Z
; short __cdecl af::<short>(class af::array const &__ptr64 )
??$product@F@af@@YAFAEBVarray@0@@Z
; short __cdecl af::<short>(class af::array const &__ptr64 ,double)
??$product@F@af@@YAFAEBVarray@0@N@Z
; unsigned short __cdecl af::<unsigned short>(class af::array const &__ptr64 )
??$product@G@af@@YAGAEBVarray@0@@Z
; unsigned short __cdecl af::<unsigned short>(class af::array const &__ptr64 ,double)
??$product@G@af@@YAGAEBVarray@0@N@Z
; int __cdecl af::<int>(class af::array const &__ptr64 )
??$product@H@af@@YAHAEBVarray@0@@Z
; int __cdecl af::<int>(class af::array const &__ptr64 ,double)
??$product@H@af@@YAHAEBVarray@0@N@Z
; unsigned int __cdecl af::<unsigned int>(class af::array const &__ptr64 )
??$product@I@af@@YAIAEBVarray@0@@Z
; unsigned int __cdecl af::<unsigned int>(class af::array const &__ptr64 ,double)
??$product@I@af@@YAIAEBVarray@0@N@Z
; long __cdecl af::<long>(class af::array const &__ptr64 )
??$product@J@af@@YAJAEBVarray@0@@Z
; long __cdecl af::<long>(class af::array const &__ptr64 ,double)
??$product@J@af@@YAJAEBVarray@0@N@Z
; unsigned long __cdecl af::<unsigned long>(class af::array const &__ptr64 )
??$product@K@af@@YAKAEBVarray@0@@Z
; unsigned long __cdecl af::<unsigned long>(class af::array const &__ptr64 ,double)
??$product@K@af@@YAKAEBVarray@0@N@Z
; float __cdecl af::<float>(class af::array const &__ptr64 )
??$product@M@af@@YAMAEBVarray@0@@Z
; float __cdecl af::<float>(class af::array const &__ptr64 ,double)
??$product@M@af@@YAMAEBVarray@0@N@Z
; double __cdecl af::<double>(class af::array const &__ptr64 )
??$product@N@af@@YANAEBVarray@0@@Z
; double __cdecl af::<double>(class af::array const &__ptr64 ,double)
??$product@N@af@@YANAEBVarray@0@N@Z
; struct af::af_cdouble __cdecl af::<struct af::af_cdouble>(class af::array const &__ptr64 )
??$product@Uaf_cdouble@af@@@af@@YA?AUaf_cdouble@0@AEBVarray@0@@Z
; struct af::af_cdouble __cdecl af::<struct af::af_cdouble>(class af::array const &__ptr64 ,double)
??$product@Uaf_cdouble@af@@@af@@YA?AUaf_cdouble@0@AEBVarray@0@N@Z
; struct af::af_cfloat __cdecl af::<struct af::af_cfloat>(class af::array const &__ptr64 )
??$product@Uaf_cfloat@af@@@af@@YA?AUaf_cfloat@0@AEBVarray@0@@Z
; struct af::af_cfloat __cdecl af::<struct af::af_cfloat>(class af::array const &__ptr64 ,double)
??$product@Uaf_cfloat@af@@@af@@YA?AUaf_cfloat@0@AEBVarray@0@N@Z
; class af::array __cdecl af::<class af::array>(class af::array const &__ptr64 )
??$product@Varray@af@@@af@@YA?AVarray@0@AEBV10@@Z
; class af::array __cdecl af::<class af::array>(class af::array const &__ptr64 ,double)
??$product@Varray@af@@@af@@YA?AVarray@0@AEBV10@N@Z
; __int64 __cdecl af::<__int64>(class af::array const &__ptr64 )
??$product@_J@af@@YA_JAEBVarray@0@@Z
; __int64 __cdecl af::<__int64>(class af::array const &__ptr64 ,double)
??$product@_J@af@@YA_JAEBVarray@0@N@Z
; unsigned __int64 __cdecl af::<unsigned __int64>(class af::array const &__ptr64 )
??$product@_K@af@@YA_KAEBVarray@0@@Z
; unsigned __int64 __cdecl af::<unsigned __int64>(class af::array const &__ptr64 ,double)
??$product@_K@af@@YA_KAEBVarray@0@N@Z
; public: signed char __cdecl af::array::<signed char>(void)const __ptr64 
??$scalar@C@array@af@@QEBACXZ
; public: signed char __cdecl af::array::array_proxy::<signed char>(void)const __ptr64 
??$scalar@C@array_proxy@array@af@@QEBACXZ
; public: char __cdecl af::array::<char>(void)const __ptr64 
??$scalar@D@array@af@@QEBADXZ
; public: char __cdecl af::array::array_proxy::<char>(void)const __ptr64 
??$scalar@D@array_proxy@array@af@@QEBADXZ
; public: unsigned char __cdecl af::array::<unsigned char>(void)const __ptr64 
??$scalar@E@array@af@@QEBAEXZ
; public: unsigned char __cdecl af::array::array_proxy::<unsigned char>(void)const __ptr64 
??$scalar@E@array_proxy@array@af@@QEBAEXZ
; public: short __cdecl af::array::<short>(void)const __ptr64 
??$scalar@F@array@af@@QEBAFXZ
; public: short __cdecl af::array::array_proxy::<short>(void)const __ptr64 
??$scalar@F@array_proxy@array@af@@QEBAFXZ
; public: unsigned short __cdecl af::array::<unsigned short>(void)const __ptr64 
??$scalar@G@array@af@@QEBAGXZ
; public: unsigned short __cdecl af::array::array_proxy::<unsigned short>(void)const __ptr64 
??$scalar@G@array_proxy@array@af@@QEBAGXZ
; public: int __cdecl af::array::<int>(void)const __ptr64 
??$scalar@H@array@af@@QEBAHXZ
; public: int __cdecl af::array::array_proxy::<int>(void)const __ptr64 
??$scalar@H@array_proxy@array@af@@QEBAHXZ
; public: unsigned int __cdecl af::array::<unsigned int>(void)const __ptr64 
??$scalar@I@array@af@@QEBAIXZ
; public: unsigned int __cdecl af::array::array_proxy::<unsigned int>(void)const __ptr64 
??$scalar@I@array_proxy@array@af@@QEBAIXZ
; public: float __cdecl af::array::<float>(void)const __ptr64 
??$scalar@M@array@af@@QEBAMXZ
; public: float __cdecl af::array::array_proxy::<float>(void)const __ptr64 
??$scalar@M@array_proxy@array@af@@QEBAMXZ
; public: double __cdecl af::array::<double>(void)const __ptr64 
??$scalar@N@array@af@@QEBANXZ
; public: double __cdecl af::array::array_proxy::<double>(void)const __ptr64 
??$scalar@N@array_proxy@array@af@@QEBANXZ
; public: struct af::af_cdouble __cdecl af::array::<struct af::af_cdouble>(void)const __ptr64 
??$scalar@Uaf_cdouble@af@@@array@af@@QEBA?AUaf_cdouble@1@XZ
; public: struct af::af_cdouble __cdecl af::array::array_proxy::<struct af::af_cdouble>(void)const __ptr64 
??$scalar@Uaf_cdouble@af@@@array_proxy@array@af@@QEBA?AUaf_cdouble@2@XZ
; public: struct af::af_cfloat __cdecl af::array::<struct af::af_cfloat>(void)const __ptr64 
??$scalar@Uaf_cfloat@af@@@array@af@@QEBA?AUaf_cfloat@1@XZ
; public: struct af::af_cfloat __cdecl af::array::array_proxy::<struct af::af_cfloat>(void)const __ptr64 
??$scalar@Uaf_cfloat@af@@@array_proxy@array@af@@QEBA?AUaf_cfloat@2@XZ
; public: struct af_half __cdecl af::array::<struct af_half>(void)const __ptr64 
??$scalar@Uaf_half@@@array@af@@QEBA?AUaf_half@@XZ
; public: struct af_half __cdecl af::array::array_proxy::<struct af_half>(void)const __ptr64 
??$scalar@Uaf_half@@@array_proxy@array@af@@QEBA?AUaf_half@@XZ
; public: class half_float::half __cdecl af::array::<class half_float::half>(void)const __ptr64 
??$scalar@Vhalf@half_float@@@array@af@@QEBA?AVhalf@half_float@@XZ
; public: class half_float::half __cdecl af::array::array_proxy::<class half_float::half>(void)const __ptr64 
??$scalar@Vhalf@half_float@@@array_proxy@array@af@@QEBA?AVhalf@half_float@@XZ
; public: __int64 __cdecl af::array::<__int64>(void)const __ptr64 
??$scalar@_J@array@af@@QEBA_JXZ
; public: __int64 __cdecl af::array::array_proxy::<__int64>(void)const __ptr64 
??$scalar@_J@array_proxy@array@af@@QEBA_JXZ
; public: unsigned __int64 __cdecl af::array::<unsigned __int64>(void)const __ptr64 
??$scalar@_K@array@af@@QEBA_KXZ
; public: unsigned __int64 __cdecl af::array::array_proxy::<unsigned __int64>(void)const __ptr64 
??$scalar@_K@array_proxy@array@af@@QEBA_KXZ
; signed char __cdecl af::<signed char>(class af::array const &__ptr64 )
??$stdev@C@af@@YACAEBVarray@0@@Z
; signed char __cdecl af::<signed char>(class af::array const &__ptr64 ,enum af_var_bias)
??$stdev@C@af@@YACAEBVarray@0@W4af_var_bias@@@Z
; char __cdecl af::<char>(class af::array const &__ptr64 )
??$stdev@D@af@@YADAEBVarray@0@@Z
; char __cdecl af::<char>(class af::array const &__ptr64 ,enum af_var_bias)
??$stdev@D@af@@YADAEBVarray@0@W4af_var_bias@@@Z
; unsigned char __cdecl af::<unsigned char>(class af::array const &__ptr64 )
??$stdev@E@af@@YAEAEBVarray@0@@Z
; unsigned char __cdecl af::<unsigned char>(class af::array const &__ptr64 ,enum af_var_bias)
??$stdev@E@af@@YAEAEBVarray@0@W4af_var_bias@@@Z
; short __cdecl af::<short>(class af::array const &__ptr64 )
??$stdev@F@af@@YAFAEBVarray@0@@Z
; short __cdecl af::<short>(class af::array const &__ptr64 ,enum af_var_bias)
??$stdev@F@af@@YAFAEBVarray@0@W4af_var_bias@@@Z
; unsigned short __cdecl af::<unsigned short>(class af::array const &__ptr64 )
??$stdev@G@af@@YAGAEBVarray@0@@Z
; unsigned short __cdecl af::<unsigned short>(class af::array const &__ptr64 ,enum af_var_bias)
??$stdev@G@af@@YAGAEBVarray@0@W4af_var_bias@@@Z
; int __cdecl af::<int>(class af::array const &__ptr64 )
??$stdev@H@af@@YAHAEBVarray@0@@Z
; int __cdecl af::<int>(class af::array const &__ptr64 ,enum af_var_bias)
??$stdev@H@af@@YAHAEBVarray@0@W4af_var_bias@@@Z
; unsigned int __cdecl af::<unsigned int>(class af::array const &__ptr64 )
??$stdev@I@af@@YAIAEBVarray@0@@Z
; unsigned int __cdecl af::<unsigned int>(class af::array const &__ptr64 ,enum af_var_bias)
??$stdev@I@af@@YAIAEBVarray@0@W4af_var_bias@@@Z
; float __cdecl af::<float>(class af::array const &__ptr64 )
??$stdev@M@af@@YAMAEBVarray@0@@Z
; float __cdecl af::<float>(class af::array const &__ptr64 ,enum af_var_bias)
??$stdev@M@af@@YAMAEBVarray@0@W4af_var_bias@@@Z
; double __cdecl af::<double>(class af::array const &__ptr64 )
??$stdev@N@af@@YANAEBVarray@0@@Z
; double __cdecl af::<double>(class af::array const &__ptr64 ,enum af_var_bias)
??$stdev@N@af@@YANAEBVarray@0@W4af_var_bias@@@Z
; struct af::af_cdouble __cdecl af::<struct af::af_cdouble>(class af::array const &__ptr64 )
??$stdev@Uaf_cdouble@af@@@af@@YA?AUaf_cdouble@0@AEBVarray@0@@Z
; struct af::af_cdouble __cdecl af::<struct af::af_cdouble>(class af::array const &__ptr64 ,enum af_var_bias)
??$stdev@Uaf_cdouble@af@@@af@@YA?AUaf_cdouble@0@AEBVarray@0@W4af_var_bias@@@Z
; struct af::af_cfloat __cdecl af::<struct af::af_cfloat>(class af::array const &__ptr64 )
??$stdev@Uaf_cfloat@af@@@af@@YA?AUaf_cfloat@0@AEBVarray@0@@Z
; struct af::af_cfloat __cdecl af::<struct af::af_cfloat>(class af::array const &__ptr64 ,enum af_var_bias)
??$stdev@Uaf_cfloat@af@@@af@@YA?AUaf_cfloat@0@AEBVarray@0@W4af_var_bias@@@Z
; __int64 __cdecl af::<__int64>(class af::array const &__ptr64 )
??$stdev@_J@af@@YA_JAEBVarray@0@@Z
; __int64 __cdecl af::<__int64>(class af::array const &__ptr64 ,enum af_var_bias)
??$stdev@_J@af@@YA_JAEBVarray@0@W4af_var_bias@@@Z
; unsigned __int64 __cdecl af::<unsigned __int64>(class af::array const &__ptr64 )
??$stdev@_K@af@@YA_KAEBVarray@0@@Z
; unsigned __int64 __cdecl af::<unsigned __int64>(class af::array const &__ptr64 ,enum af_var_bias)
??$stdev@_K@af@@YA_KAEBVarray@0@W4af_var_bias@@@Z
; signed char __cdecl af::<signed char>(class af::array const &__ptr64 )
??$sum@C@af@@YACAEBVarray@0@@Z
; signed char __cdecl af::<signed char>(class af::array const &__ptr64 ,double)
??$sum@C@af@@YACAEBVarray@0@N@Z
; char __cdecl af::<char>(class af::array const &__ptr64 )
??$sum@D@af@@YADAEBVarray@0@@Z
; char __cdecl af::<char>(class af::array const &__ptr64 ,double)
??$sum@D@af@@YADAEBVarray@0@N@Z
; unsigned char __cdecl af::<unsigned char>(class af::array const &__ptr64 )
??$sum@E@af@@YAEAEBVarray@0@@Z
; unsigned char __cdecl af::<unsigned char>(class af::array const &__ptr64 ,double)
??$sum@E@af@@YAEAEBVarray@0@N@Z
; short __cdecl af::<short>(class af::array const &__ptr64 )
??$sum@F@af@@YAFAEBVarray@0@@Z
; short __cdecl af::<short>(class af::array const &__ptr64 ,double)
??$sum@F@af@@YAFAEBVarray@0@N@Z
; unsigned short __cdecl af::<unsigned short>(class af::array const &__ptr64 )
??$sum@G@af@@YAGAEBVarray@0@@Z
; unsigned short __cdecl af::<unsigned short>(class af::array const &__ptr64 ,double)
??$sum@G@af@@YAGAEBVarray@0@N@Z
; int __cdecl af::<int>(class af::array const &__ptr64 )
??$sum@H@af@@YAHAEBVarray@0@@Z
; int __cdecl af::<int>(class af::array const &__ptr64 ,double)
??$sum@H@af@@YAHAEBVarray@0@N@Z
; unsigned int __cdecl af::<unsigned int>(class af::array const &__ptr64 )
??$sum@I@af@@YAIAEBVarray@0@@Z
; unsigned int __cdecl af::<unsigned int>(class af::array const &__ptr64 ,double)
??$sum@I@af@@YAIAEBVarray@0@N@Z
; long __cdecl af::<long>(class af::array const &__ptr64 )
??$sum@J@af@@YAJAEBVarray@0@@Z
; long __cdecl af::<long>(class af::array const &__ptr64 ,double)
??$sum@J@af@@YAJAEBVarray@0@N@Z
; unsigned long __cdecl af::<unsigned long>(class af::array const &__ptr64 )
??$sum@K@af@@YAKAEBVarray@0@@Z
; unsigned long __cdecl af::<unsigned long>(class af::array const &__ptr64 ,double)
??$sum@K@af@@YAKAEBVarray@0@N@Z
; float __cdecl af::<float>(class af::array const &__ptr64 )
??$sum@M@af@@YAMAEBVarray@0@@Z
; float __cdecl af::<float>(class af::array const &__ptr64 ,double)
??$sum@M@af@@YAMAEBVarray@0@N@Z
; double __cdecl af::<double>(class af::array const &__ptr64 )
??$sum@N@af@@YANAEBVarray@0@@Z
; double __cdecl af::<double>(class af::array const &__ptr64 ,double)
??$sum@N@af@@YANAEBVarray@0@N@Z
; struct af::af_cdouble __cdecl af::<struct af::af_cdouble>(class af::array const &__ptr64 )
??$sum@Uaf_cdouble@af@@@af@@YA?AUaf_cdouble@0@AEBVarray@0@@Z
; struct af::af_cdouble __cdecl af::<struct af::af_cdouble>(class af::array const &__ptr64 ,double)
??$sum@Uaf_cdouble@af@@@af@@YA?AUaf_cdouble@0@AEBVarray@0@N@Z
; struct af::af_cfloat __cdecl af::<struct af::af_cfloat>(class af::array const &__ptr64 )
??$sum@Uaf_cfloat@af@@@af@@YA?AUaf_cfloat@0@AEBVarray@0@@Z
; struct af::af_cfloat __cdecl af::<struct af::af_cfloat>(class af::array const &__ptr64 ,double)
??$sum@Uaf_cfloat@af@@@af@@YA?AUaf_cfloat@0@AEBVarray@0@N@Z
; class af::array __cdecl af::<class af::array>(class af::array const &__ptr64 )
??$sum@Varray@af@@@af@@YA?AVarray@0@AEBV10@@Z
; class af::array __cdecl af::<class af::array>(class af::array const &__ptr64 ,double)
??$sum@Varray@af@@@af@@YA?AVarray@0@AEBV10@N@Z
; __int64 __cdecl af::<__int64>(class af::array const &__ptr64 )
??$sum@_J@af@@YA_JAEBVarray@0@@Z
; __int64 __cdecl af::<__int64>(class af::array const &__ptr64 ,double)
??$sum@_J@af@@YA_JAEBVarray@0@N@Z
; unsigned __int64 __cdecl af::<unsigned __int64>(class af::array const &__ptr64 )
??$sum@_K@af@@YA_KAEBVarray@0@@Z
; unsigned __int64 __cdecl af::<unsigned __int64>(class af::array const &__ptr64 ,double)
??$sum@_K@af@@YA_KAEBVarray@0@N@Z
; signed char __cdecl af::<signed char>(class af::array const &__ptr64 ,class af::array const &__ptr64 )
??$var@C@af@@YACAEBVarray@0@0@Z
; signed char __cdecl af::<signed char>(class af::array const &__ptr64 ,enum af_var_bias)
??$var@C@af@@YACAEBVarray@0@W4af_var_bias@@@Z
; signed char __cdecl af::<signed char>(class af::array const &__ptr64 ,bool)
??$var@C@af@@YACAEBVarray@0@_N@Z
; char __cdecl af::<char>(class af::array const &__ptr64 ,class af::array const &__ptr64 )
??$var@D@af@@YADAEBVarray@0@0@Z
; char __cdecl af::<char>(class af::array const &__ptr64 ,enum af_var_bias)
??$var@D@af@@YADAEBVarray@0@W4af_var_bias@@@Z
; char __cdecl af::<char>(class af::array const &__ptr64 ,bool)
??$var@D@af@@YADAEBVarray@0@_N@Z
; unsigned char __cdecl af::<unsigned char>(class af::array const &__ptr64 ,class af::array const &__ptr64 )
??$var@E@af@@YAEAEBVarray@0@0@Z
; unsigned char __cdecl af::<unsigned char>(class af::array const &__ptr64 ,enum af_var_bias)
??$var@E@af@@YAEAEBVarray@0@W4af_var_bias@@@Z
; unsigned char __cdecl af::<unsigned char>(class af::array const &__ptr64 ,bool)
??$var@E@af@@YAEAEBVarray@0@_N@Z
; short __cdecl af::<short>(class af::array const &__ptr64 ,class af::array const &__ptr64 )
??$var@F@af@@YAFAEBVarray@0@0@Z
; short __cdecl af::<short>(class af::array const &__ptr64 ,enum af_var_bias)
??$var@F@af@@YAFAEBVarray@0@W4af_var_bias@@@Z
; short __cdecl af::<short>(class af::array const &__ptr64 ,bool)
??$var@F@af@@YAFAEBVarray@0@_N@Z
; unsigned short __cdecl af::<unsigned short>(class af::array const &__ptr64 ,class af::array const &__ptr64 )
??$var@G@af@@YAGAEBVarray@0@0@Z
; unsigned short __cdecl af::<unsigned short>(class af::array const &__ptr64 ,enum af_var_bias)
??$var@G@af@@YAGAEBVarray@0@W4af_var_bias@@@Z
; unsigned short __cdecl af::<unsigned short>(class af::array const &__ptr64 ,bool)
??$var@G@af@@YAGAEBVarray@0@_N@Z
; int __cdecl af::<int>(class af::array const &__ptr64 ,class af::array const &__ptr64 )
??$var@H@af@@YAHAEBVarray@0@0@Z
; int __cdecl af::<int>(class af::array const &__ptr64 ,enum af_var_bias)
??$var@H@af@@YAHAEBVarray@0@W4af_var_bias@@@Z
; int __cdecl af::<int>(class af::array const &__ptr64 ,bool)
??$var@H@af@@YAHAEBVarray@0@_N@Z
; unsigned int __cdecl af::<unsigned int>(class af::array const &__ptr64 ,class af::array const &__ptr64 )
??$var@I@af@@YAIAEBVarray@0@0@Z
; unsigned int __cdecl af::<unsigned int>(class af::array const &__ptr64 ,enum af_var_bias)
??$var@I@af@@YAIAEBVarray@0@W4af_var_bias@@@Z
; unsigned int __cdecl af::<unsigned int>(class af::array const &__ptr64 ,bool)
??$var@I@af@@YAIAEBVarray@0@_N@Z
; float __cdecl af::<float>(class af::array const &__ptr64 ,class af::array const &__ptr64 )
??$var@M@af@@YAMAEBVarray@0@0@Z
; float __cdecl af::<float>(class af::array const &__ptr64 ,enum af_var_bias)
??$var@M@af@@YAMAEBVarray@0@W4af_var_bias@@@Z
; float __cdecl af::<float>(class af::array const &__ptr64 ,bool)
??$var@M@af@@YAMAEBVarray@0@_N@Z
; double __cdecl af::<double>(class af::array const &__ptr64 ,class af::array const &__ptr64 )
??$var@N@af@@YANAEBVarray@0@0@Z
; double __cdecl af::<double>(class af::array const &__ptr64 ,enum af_var_bias)
??$var@N@af@@YANAEBVarray@0@W4af_var_bias@@@Z
; double __cdecl af::<double>(class af::array const &__ptr64 ,bool)
??$var@N@af@@YANAEBVarray@0@_N@Z
; struct af::af_cdouble __cdecl af::<struct af::af_cdouble>(class af::array const &__ptr64 ,class af::array const &__ptr64 )
??$var@Uaf_cdouble@af@@@af@@YA?AUaf_cdouble@0@AEBVarray@0@0@Z
; struct af::af_cdouble __cdecl af::<struct af::af_cdouble>(class af::array const &__ptr64 ,enum af_var_bias)
??$var@Uaf_cdouble@af@@@af@@YA?AUaf_cdouble@0@AEBVarray@0@W4af_var_bias@@@Z
; struct af::af_cdouble __cdecl af::<struct af::af_cdouble>(class af::array const &__ptr64 ,bool)
??$var@Uaf_cdouble@af@@@af@@YA?AUaf_cdouble@0@AEBVarray@0@_N@Z
; struct af::af_cfloat __cdecl af::<struct af::af_cfloat>(class af::array const &__ptr64 ,class af::array const &__ptr64 )
??$var@Uaf_cfloat@af@@@af@@YA?AUaf_cfloat@0@AEBVarray@0@0@Z
; struct af::af_cfloat __cdecl af::<struct af::af_cfloat>(class af::array const &__ptr64 ,enum af_var_bias)
??$var@Uaf_cfloat@af@@@af@@YA?AUaf_cfloat@0@AEBVarray@0@W4af_var_bias@@@Z
; struct af::af_cfloat __cdecl af::<struct af::af_cfloat>(class af::array const &__ptr64 ,bool)
??$var@Uaf_cfloat@af@@@af@@YA?AUaf_cfloat@0@AEBVarray@0@_N@Z
; struct af_half __cdecl af::<struct af_half>(class af::array const &__ptr64 ,class af::array const &__ptr64 )
??$var@Uaf_half@@@af@@YA?AUaf_half@@AEBVarray@0@0@Z
; struct af_half __cdecl af::<struct af_half>(class af::array const &__ptr64 ,enum af_var_bias)
??$var@Uaf_half@@@af@@YA?AUaf_half@@AEBVarray@0@W4af_var_bias@@@Z
; struct af_half __cdecl af::<struct af_half>(class af::array const &__ptr64 ,bool)
??$var@Uaf_half@@@af@@YA?AUaf_half@@AEBVarray@0@_N@Z
; class half_float::half __cdecl af::<class half_float::half>(class af::array const &__ptr64 ,class af::array const &__ptr64 )
??$var@Vhalf@half_float@@@af@@YA?AVhalf@half_float@@AEBVarray@0@0@Z
; class half_float::half __cdecl af::<class half_float::half>(class af::array const &__ptr64 ,enum af_var_bias)
??$var@Vhalf@half_float@@@af@@YA?AVhalf@half_float@@AEBVarray@0@W4af_var_bias@@@Z
; class half_float::half __cdecl af::<class half_float::half>(class af::array const &__ptr64 ,bool)
??$var@Vhalf@half_float@@@af@@YA?AVhalf@half_float@@AEBVarray@0@_N@Z
; __int64 __cdecl af::<__int64>(class af::array const &__ptr64 ,class af::array const &__ptr64 )
??$var@_J@af@@YA_JAEBVarray@0@0@Z
; __int64 __cdecl af::<__int64>(class af::array const &__ptr64 ,enum af_var_bias)
??$var@_J@af@@YA_JAEBVarray@0@W4af_var_bias@@@Z
; __int64 __cdecl af::<__int64>(class af::array const &__ptr64 ,bool)
??$var@_J@af@@YA_JAEBVarray@0@_N@Z
; unsigned __int64 __cdecl af::<unsigned __int64>(class af::array const &__ptr64 ,class af::array const &__ptr64 )
??$var@_K@af@@YA_KAEBVarray@0@0@Z
; unsigned __int64 __cdecl af::<unsigned __int64>(class af::array const &__ptr64 ,enum af_var_bias)
??$var@_K@af@@YA_KAEBVarray@0@W4af_var_bias@@@Z
; unsigned __int64 __cdecl af::<unsigned __int64>(class af::array const &__ptr64 ,bool)
??$var@_K@af@@YA_KAEBVarray@0@_N@Z
; public: void __cdecl af::array::<signed char>(signed char const *__ptr64,unsigned __int64,enum af_source)__ptr64 
??$write@C@array@af@@QEAAXPEBC_KW4af_source@@@Z
; public: void __cdecl af::array::<char>(char const *__ptr64,unsigned __int64,enum af_source)__ptr64 
??$write@D@array@af@@QEAAXPEBD_KW4af_source@@@Z
; public: void __cdecl af::array::<unsigned char>(unsigned char const *__ptr64,unsigned __int64,enum af_source)__ptr64 
??$write@E@array@af@@QEAAXPEBE_KW4af_source@@@Z
; public: void __cdecl af::array::<short>(short const *__ptr64,unsigned __int64,enum af_source)__ptr64 
??$write@F@array@af@@QEAAXPEBF_KW4af_source@@@Z
; public: void __cdecl af::array::<unsigned short>(unsigned short const *__ptr64,unsigned __int64,enum af_source)__ptr64 
??$write@G@array@af@@QEAAXPEBG_KW4af_source@@@Z
; public: void __cdecl af::array::<int>(int const *__ptr64,unsigned __int64,enum af_source)__ptr64 
??$write@H@array@af@@QEAAXPEBH_KW4af_source@@@Z
; public: void __cdecl af::array::<unsigned int>(unsigned int const *__ptr64,unsigned __int64,enum af_source)__ptr64 
??$write@I@array@af@@QEAAXPEBI_KW4af_source@@@Z
; public: void __cdecl af::array::<float>(float const *__ptr64,unsigned __int64,enum af_source)__ptr64 
??$write@M@array@af@@QEAAXPEBM_KW4af_source@@@Z
; public: void __cdecl af::array::<double>(double const *__ptr64,unsigned __int64,enum af_source)__ptr64 
??$write@N@array@af@@QEAAXPEBN_KW4af_source@@@Z
; public: void __cdecl af::array::<struct af::af_cdouble>(struct af::af_cdouble const *__ptr64,unsigned __int64,enum af_source)__ptr64 
??$write@Uaf_cdouble@af@@@array@af@@QEAAXPEBUaf_cdouble@1@_KW4af_source@@@Z
; public: void __cdecl af::array::<struct af::af_cfloat>(struct af::af_cfloat const *__ptr64,unsigned __int64,enum af_source)__ptr64 
??$write@Uaf_cfloat@af@@@array@af@@QEAAXPEBUaf_cfloat@1@_KW4af_source@@@Z
; public: void __cdecl af::array::<struct af_half>(struct af_half const *__ptr64,unsigned __int64,enum af_source)__ptr64 
??$write@Uaf_half@@@array@af@@QEAAXPEBUaf_half@@_KW4af_source@@@Z
; public: void __cdecl af::array::<class half_float::half>(class half_float::half const *__ptr64,unsigned __int64,enum af_source)__ptr64 
??$write@Vhalf@half_float@@@array@af@@QEAAXPEBVhalf@half_float@@_KW4af_source@@@Z
; public: void __cdecl af::array::<void>(void const *__ptr64,unsigned __int64,enum af_source)__ptr64 
??$write@X@array@af@@QEAAXPEBX_KW4af_source@@@Z
; public: void __cdecl af::array::<__int64>(__int64 const *__ptr64,unsigned __int64,enum af_source)__ptr64 
??$write@_J@array@af@@QEAAXPEB_J_KW4af_source@@@Z
; public: void __cdecl af::array::<unsigned __int64>(unsigned __int64 const *__ptr64,unsigned __int64,enum af_source)__ptr64 
??$write@_K@array@af@@QEAAXPEB_K_KW4af_source@@@Z
; public: __cdecl af::Window::Window(int,int,char const *__ptr64 const)__ptr64 
??0Window@af@@QEAA@HHQEBD@Z
; public: __cdecl af::Window::Window(void *__ptr64 const)__ptr64 
??0Window@af@@QEAA@QEAX@Z
; public: __cdecl af::Window::Window(char const *__ptr64 const)__ptr64 
??0Window@af@@QEAA@QEBD@Z
; public: __cdecl af::Window::Window(void)__ptr64 
??0Window@af@@QEAA@XZ
; public: __cdecl af::array::array(,class af::array *__ptr64 const)__ptr64 
??0array@af@@QEAA@$$QEAV01@@Z
; public: __cdecl af::array::array(class af::array const &__ptr64 )__ptr64 
??0array@af@@QEAA@AEBV01@@Z
; public: __cdecl af::array::array(class af::array const &__ptr64 ,class af::dim4 const &__ptr64 )__ptr64 
??0array@af@@QEAA@AEBV01@AEBVdim4@1@@Z
; public: __cdecl af::array::array(class af::array const &__ptr64 ,__int64,__int64,__int64,__int64)__ptr64 
??0array@af@@QEAA@AEBV01@_J111@Z
; public: __cdecl af::array::array(class af::dim4 const &__ptr64 ,enum af_dtype)__ptr64 
??0array@af@@QEAA@AEBVdim4@1@W4af_dtype@@@Z
; public: __cdecl af::array::array(void *__ptr64 const)__ptr64 
??0array@af@@QEAA@QEAX@Z
; public: __cdecl af::array::array(void)__ptr64 
??0array@af@@QEAA@XZ
; public: __cdecl af::array::array(__int64,__int64,__int64,__int64,enum af_dtype)__ptr64 
??0array@af@@QEAA@_J000W4af_dtype@@@Z
; public: __cdecl af::array::array(__int64,__int64,__int64,enum af_dtype)__ptr64 
??0array@af@@QEAA@_J00W4af_dtype@@@Z
; public: __cdecl af::array::array(__int64,__int64,enum af_dtype)__ptr64 
??0array@af@@QEAA@_J0W4af_dtype@@@Z
; public: __cdecl af::array::array(__int64,enum af_dtype)__ptr64 
??0array@af@@QEAA@_JW4af_dtype@@@Z
; public: __cdecl af::array::array_proxy::array_proxy(,class af::array::array_proxy *__ptr64 const)__ptr64 
??0array_proxy@array@af@@QEAA@$$QEAV012@@Z
; public: __cdecl af::array::array_proxy::array_proxy(class af::array &__ptr64 ,struct af_index_t *__ptr64,bool)__ptr64 
??0array_proxy@array@af@@QEAA@AEAV12@PEAUaf_index_t@@_N@Z
; public: __cdecl af::array::array_proxy::array_proxy(class af::array::array_proxy const &__ptr64 )__ptr64 
??0array_proxy@array@af@@QEAA@AEBV012@@Z
; public: __cdecl af::dim4::dim4(,class af::dim4 *__ptr64 const)__ptr64 
??0dim4@af@@QEAA@$$QEAV01@@Z
; public: __cdecl af::dim4::dim4(class af::dim4 const &__ptr64 )__ptr64 
??0dim4@af@@QEAA@AEBV01@@Z
; public: __cdecl af::dim4::dim4(unsigned int,__int64 const *__ptr64 const)__ptr64 
??0dim4@af@@QEAA@IQEB_J@Z
; public: __cdecl af::dim4::dim4(void)__ptr64 
??0dim4@af@@QEAA@XZ
; public: __cdecl af::dim4::dim4(__int64,__int64,__int64,__int64)__ptr64 
??0dim4@af@@QEAA@_J000@Z
; public: __cdecl af::event::event(,class af::event *__ptr64 const)__ptr64 
??0event@af@@QEAA@$$QEAV01@@Z
; public: __cdecl af::event::event(void *__ptr64)__ptr64 
??0event@af@@QEAA@PEAX@Z
; public: __cdecl af::event::event(void)__ptr64 
??0event@af@@QEAA@XZ
; public: __cdecl af::exception::exception(class af::exception const &__ptr64 )__ptr64 
??0exception@af@@QEAA@AEBV01@@Z
; public: __cdecl af::exception::exception(char const *__ptr64,char const *__ptr64,char const *__ptr64,unsigned int,enum af_err)__ptr64 
??0exception@af@@QEAA@PEBD00IW4af_err@@@Z
; public: __cdecl af::exception::exception(char const *__ptr64,char const *__ptr64,unsigned int,enum af_err)__ptr64 
??0exception@af@@QEAA@PEBD0IW4af_err@@@Z
; public: __cdecl af::exception::exception(char const *__ptr64)__ptr64 
??0exception@af@@QEAA@PEBD@Z
; public: __cdecl af::exception::exception(char const *__ptr64,unsigned int,enum af_err)__ptr64 
??0exception@af@@QEAA@PEBDIW4af_err@@@Z
; public: __cdecl af::exception::exception(void)__ptr64 
??0exception@af@@QEAA@XZ
; public: __cdecl af::features::features(,class af::features *__ptr64 const)__ptr64 
??0features@af@@QEAA@$$QEAV01@@Z
; public: __cdecl af::features::features(class af::features const &__ptr64 )__ptr64 
??0features@af@@QEAA@AEBV01@@Z
; public: __cdecl af::features::features(void *__ptr64)__ptr64 
??0features@af@@QEAA@PEAX@Z
; public: __cdecl af::features::features(void)__ptr64 
??0features@af@@QEAA@XZ
; public: __cdecl af::features::features(unsigned __int64)__ptr64 
??0features@af@@QEAA@_K@Z
; public: __cdecl af::index::index(,class af::index *__ptr64 const)__ptr64 
??0index@af@@QEAA@$$QEAV01@@Z
; public: __cdecl af::index::index(struct af_seq const &__ptr64 )__ptr64 
??0index@af@@QEAA@AEBUaf_seq@@@Z
; public: __cdecl af::index::index(class af::index const &__ptr64 )__ptr64 
??0index@af@@QEAA@AEBV01@@Z
; public: __cdecl af::index::index(class af::array const &__ptr64 )__ptr64 
??0index@af@@QEAA@AEBVarray@1@@Z
; public: __cdecl af::index::index(class af::seq const &__ptr64 )__ptr64 
??0index@af@@QEAA@AEBVseq@1@@Z
; public: __cdecl af::index::index(int)__ptr64 
??0index@af@@QEAA@H@Z
; public: __cdecl af::index::index(void)__ptr64 
??0index@af@@QEAA@XZ
; public: __cdecl af::randomEngine::randomEngine(class af::randomEngine const &__ptr64 )__ptr64 
??0randomEngine@af@@QEAA@AEBV01@@Z
; public: __cdecl af::randomEngine::randomEngine(void *__ptr64)__ptr64 
??0randomEngine@af@@QEAA@PEAX@Z
; public: __cdecl af::randomEngine::randomEngine(enum af_random_engine_type,unsigned __int64)__ptr64 
??0randomEngine@af@@QEAA@W4af_random_engine_type@@_K@Z
; public: __cdecl af::seq::seq(struct af_seq const &__ptr64 )__ptr64 
??0seq@af@@QEAA@AEBUaf_seq@@@Z
; public: __cdecl af::seq::seq(double)__ptr64 
??0seq@af@@QEAA@N@Z
; public: __cdecl af::seq::seq(double,double,double)__ptr64 
??0seq@af@@QEAA@NNN@Z
; public: __cdecl af::seq::seq(class af::seq,bool)__ptr64 
??0seq@af@@QEAA@V01@_N@Z
; public: __cdecl af::Window::~Window(void)__ptr64 
??1Window@af@@QEAA@XZ
; public: __cdecl af::array::~array(void)__ptr64 
??1array@af@@QEAA@XZ
; public: __cdecl af::array::array_proxy::~array_proxy(void)__ptr64 
??1array_proxy@array@af@@QEAA@XZ
; public: __cdecl af::event::~event(void)__ptr64 
??1event@af@@QEAA@XZ
; public: virtual __cdecl af::exception::~exception(void)__ptr64 
??1exception@af@@UEAA@XZ
; public: __cdecl af::features::~features(void)__ptr64 
??1features@af@@QEAA@XZ
; public: __cdecl af::index::~index(void)__ptr64 
??1index@af@@QEAA@XZ
; public: __cdecl af::randomEngine::~randomEngine(void)__ptr64 
??1randomEngine@af@@QEAA@XZ
; public: __cdecl af::seq::~seq(void)__ptr64 
??1seq@af@@QEAA@XZ
; public: class af::array &__ptr64 __cdecl af::array::operator =(,class af::array *__ptr64 const)__ptr64 
??4array@af@@QEAAAEAV01@$$QEAV01@@Z
; public: class af::array &__ptr64 __cdecl af::array::operator =(signed char const &__ptr64 )__ptr64 
??4array@af@@QEAAAEAV01@AEBC@Z
; public: class af::array &__ptr64 __cdecl af::array::operator =(char const &__ptr64 )__ptr64 
??4array@af@@QEAAAEAV01@AEBD@Z
; public: class af::array &__ptr64 __cdecl af::array::operator =(unsigned char const &__ptr64 )__ptr64 
??4array@af@@QEAAAEAV01@AEBE@Z
; public: class af::array &__ptr64 __cdecl af::array::operator =(short const &__ptr64 )__ptr64 
??4array@af@@QEAAAEAV01@AEBF@Z
; public: class af::array &__ptr64 __cdecl af::array::operator =(unsigned short const &__ptr64 )__ptr64 
??4array@af@@QEAAAEAV01@AEBG@Z
; public: class af::array &__ptr64 __cdecl af::array::operator =(int const &__ptr64 )__ptr64 
??4array@af@@QEAAAEAV01@AEBH@Z
; public: class af::array &__ptr64 __cdecl af::array::operator =(unsigned int const &__ptr64 )__ptr64 
??4array@af@@QEAAAEAV01@AEBI@Z
; public: class af::array &__ptr64 __cdecl af::array::operator =(long const &__ptr64 )__ptr64 
??4array@af@@QEAAAEAV01@AEBJ@Z
; public: class af::array &__ptr64 __cdecl af::array::operator =(unsigned long const &__ptr64 )__ptr64 
??4array@af@@QEAAAEAV01@AEBK@Z
; public: class af::array &__ptr64 __cdecl af::array::operator =(float const &__ptr64 )__ptr64 
??4array@af@@QEAAAEAV01@AEBM@Z
; public: class af::array &__ptr64 __cdecl af::array::operator =(double const &__ptr64 )__ptr64 
??4array@af@@QEAAAEAV01@AEBN@Z
; public: class af::array &__ptr64 __cdecl af::array::operator =(struct af::af_cdouble const &__ptr64 )__ptr64 
??4array@af@@QEAAAEAV01@AEBUaf_cdouble@1@@Z
; public: class af::array &__ptr64 __cdecl af::array::operator =(struct af::af_cfloat const &__ptr64 )__ptr64 
??4array@af@@QEAAAEAV01@AEBUaf_cfloat@1@@Z
; public: class af::array &__ptr64 __cdecl af::array::operator =(class af::array const &__ptr64 )__ptr64 
??4array@af@@QEAAAEAV01@AEBV01@@Z
; public: class af::array &__ptr64 __cdecl af::array::operator =(__int64 const &__ptr64 )__ptr64 
??4array@af@@QEAAAEAV01@AEB_J@Z
; public: class af::array &__ptr64 __cdecl af::array::operator =(unsigned __int64 const &__ptr64 )__ptr64 
??4array@af@@QEAAAEAV01@AEB_K@Z
; public: class af::array &__ptr64 __cdecl af::array::operator =(bool const &__ptr64 )__ptr64 
??4array@af@@QEAAAEAV01@AEB_N@Z
; public: class af::array::array_proxy &__ptr64 __cdecl af::array::array_proxy::operator =(,class af::array::array_proxy *__ptr64 const)__ptr64 
??4array_proxy@array@af@@QEAAAEAV012@$$QEAV012@@Z
; public: class af::array::array_proxy &__ptr64 __cdecl af::array::array_proxy::operator =(signed char const &__ptr64 )__ptr64 
??4array_proxy@array@af@@QEAAAEAV012@AEBC@Z
; public: class af::array::array_proxy &__ptr64 __cdecl af::array::array_proxy::operator =(char const &__ptr64 )__ptr64 
??4array_proxy@array@af@@QEAAAEAV012@AEBD@Z
; public: class af::array::array_proxy &__ptr64 __cdecl af::array::array_proxy::operator =(unsigned char const &__ptr64 )__ptr64 
??4array_proxy@array@af@@QEAAAEAV012@AEBE@Z
; public: class af::array::array_proxy &__ptr64 __cdecl af::array::array_proxy::operator =(short const &__ptr64 )__ptr64 
??4array_proxy@array@af@@QEAAAEAV012@AEBF@Z
; public: class af::array::array_proxy &__ptr64 __cdecl af::array::array_proxy::operator =(unsigned short const &__ptr64 )__ptr64 
??4array_proxy@array@af@@QEAAAEAV012@AEBG@Z
; public: class af::array::array_proxy &__ptr64 __cdecl af::array::array_proxy::operator =(int const &__ptr64 )__ptr64 
??4array_proxy@array@af@@QEAAAEAV012@AEBH@Z
; public: class af::array::array_proxy &__ptr64 __cdecl af::array::array_proxy::operator =(unsigned int const &__ptr64 )__ptr64 
??4array_proxy@array@af@@QEAAAEAV012@AEBI@Z
; public: class af::array::array_proxy &__ptr64 __cdecl af::array::array_proxy::operator =(long const &__ptr64 )__ptr64 
??4array_proxy@array@af@@QEAAAEAV012@AEBJ@Z
; public: class af::array::array_proxy &__ptr64 __cdecl af::array::array_proxy::operator =(unsigned long const &__ptr64 )__ptr64 
??4array_proxy@array@af@@QEAAAEAV012@AEBK@Z
; public: class af::array::array_proxy &__ptr64 __cdecl af::array::array_proxy::operator =(float const &__ptr64 )__ptr64 
??4array_proxy@array@af@@QEAAAEAV012@AEBM@Z
; public: class af::array::array_proxy &__ptr64 __cdecl af::array::array_proxy::operator =(double const &__ptr64 )__ptr64 
??4array_proxy@array@af@@QEAAAEAV012@AEBN@Z
; public: class af::array::array_proxy &__ptr64 __cdecl af::array::array_proxy::operator =(struct af::af_cdouble const &__ptr64 )__ptr64 
??4array_proxy@array@af@@QEAAAEAV012@AEBUaf_cdouble@2@@Z
; public: class af::array::array_proxy &__ptr64 __cdecl af::array::array_proxy::operator =(struct af::af_cfloat const &__ptr64 )__ptr64 
??4array_proxy@array@af@@QEAAAEAV012@AEBUaf_cfloat@2@@Z
; public: class af::array::array_proxy &__ptr64 __cdecl af::array::array_proxy::operator =(class af::array::array_proxy const &__ptr64 )__ptr64 
??4array_proxy@array@af@@QEAAAEAV012@AEBV012@@Z
; public: class af::array::array_proxy &__ptr64 __cdecl af::array::array_proxy::operator =(class af::array const &__ptr64 )__ptr64 
??4array_proxy@array@af@@QEAAAEAV012@AEBV12@@Z
; public: class af::array::array_proxy &__ptr64 __cdecl af::array::array_proxy::operator =(__int64 const &__ptr64 )__ptr64 
??4array_proxy@array@af@@QEAAAEAV012@AEB_J@Z
; public: class af::array::array_proxy &__ptr64 __cdecl af::array::array_proxy::operator =(unsigned __int64 const &__ptr64 )__ptr64 
??4array_proxy@array@af@@QEAAAEAV012@AEB_K@Z
; public: class af::array::array_proxy &__ptr64 __cdecl af::array::array_proxy::operator =(bool const &__ptr64 )__ptr64 
??4array_proxy@array@af@@QEAAAEAV012@AEB_N@Z
; public: class af::dim4 &__ptr64 __cdecl af::dim4::operator =(class af::dim4)__ptr64 
??4dim4@af@@QEAAAEAV01@V01@@Z
; public: class af::event &__ptr64 __cdecl af::event::operator =(,class af::event *__ptr64 const)__ptr64 
??4event@af@@QEAAAEAV01@$$QEAV01@@Z
; public: class af::exception &__ptr64 __cdecl af::exception::operator =(class af::exception const &__ptr64 )__ptr64 
??4exception@af@@QEAAAEAV01@AEBV01@@Z
; public: class af::features &__ptr64 __cdecl af::features::operator =(,class af::features *__ptr64 const)__ptr64 
??4features@af@@QEAAAEAV01@$$QEAV01@@Z
; public: class af::features &__ptr64 __cdecl af::features::operator =(class af::features const &__ptr64 )__ptr64 
??4features@af@@QEAAAEAV01@AEBV01@@Z
; public: class af::index &__ptr64 __cdecl af::index::operator =(,class af::index *__ptr64 const)__ptr64 
??4index@af@@QEAAAEAV01@$$QEAV01@@Z
; public: class af::index &__ptr64 __cdecl af::index::operator =(class af::index const &__ptr64 )__ptr64 
??4index@af@@QEAAAEAV01@AEBV01@@Z
; public: class af::randomEngine &__ptr64 __cdecl af::randomEngine::operator =(class af::randomEngine const &__ptr64 )__ptr64 
??4randomEngine@af@@QEAAAEAV01@AEBV01@@Z
; public: class af::seq &__ptr64 __cdecl af::seq::operator =(struct af_seq const &__ptr64 )__ptr64 
??4seq@af@@QEAAAEAV01@AEBUaf_seq@@@Z
; public: class af::seq &__ptr64 __cdecl af::seq::operator =(class af::seq const &__ptr64 )__ptr64 
??4seq@af@@QEAAAEAV01@AEBV01@@Z
; class af::array __cdecl af::operator >>(signed char const &__ptr64 ,class af::array const &__ptr64 )
??5af@@YA?AVarray@0@AEBCAEBV10@@Z
; class af::array __cdecl af::operator >>(char const &__ptr64 ,class af::array const &__ptr64 )
??5af@@YA?AVarray@0@AEBDAEBV10@@Z
; class af::array __cdecl af::operator >>(unsigned char const &__ptr64 ,class af::array const &__ptr64 )
??5af@@YA?AVarray@0@AEBEAEBV10@@Z
; class af::array __cdecl af::operator >>(short const &__ptr64 ,class af::array const &__ptr64 )
??5af@@YA?AVarray@0@AEBFAEBV10@@Z
; class af::array __cdecl af::operator >>(unsigned short const &__ptr64 ,class af::array const &__ptr64 )
??5af@@YA?AVarray@0@AEBGAEBV10@@Z
; class af::array __cdecl af::operator >>(int const &__ptr64 ,class af::array const &__ptr64 )
??5af@@YA?AVarray@0@AEBHAEBV10@@Z
; class af::array __cdecl af::operator >>(unsigned int const &__ptr64 ,class af::array const &__ptr64 )
??5af@@YA?AVarray@0@AEBIAEBV10@@Z
; class af::array __cdecl af::operator >>(long const &__ptr64 ,class af::array const &__ptr64 )
??5af@@YA?AVarray@0@AEBJAEBV10@@Z
; class af::array __cdecl af::operator >>(unsigned long const &__ptr64 ,class af::array const &__ptr64 )
??5af@@YA?AVarray@0@AEBKAEBV10@@Z
; class af::array __cdecl af::operator >>(float const &__ptr64 ,class af::array const &__ptr64 )
??5af@@YA?AVarray@0@AEBMAEBV10@@Z
; class af::array __cdecl af::operator >>(double const &__ptr64 ,class af::array const &__ptr64 )
??5af@@YA?AVarray@0@AEBNAEBV10@@Z
; class af::array __cdecl af::operator >>(struct af::af_cdouble const &__ptr64 ,class af::array const &__ptr64 )
??5af@@YA?AVarray@0@AEBUaf_cdouble@0@AEBV10@@Z
; class af::array __cdecl af::operator >>(struct af::af_cfloat const &__ptr64 ,class af::array const &__ptr64 )
??5af@@YA?AVarray@0@AEBUaf_cfloat@0@AEBV10@@Z
; class af::array __cdecl af::operator >>(class af::array const &__ptr64 ,class af::array const &__ptr64 )
??5af@@YA?AVarray@0@AEBV10@0@Z
; class af::array __cdecl af::operator >>(class af::array const &__ptr64 ,signed char const &__ptr64 )
??5af@@YA?AVarray@0@AEBV10@AEBC@Z
; class af::array __cdecl af::operator >>(class af::array const &__ptr64 ,char const &__ptr64 )
??5af@@YA?AVarray@0@AEBV10@AEBD@Z
; class af::array __cdecl af::operator >>(class af::array const &__ptr64 ,unsigned char const &__ptr64 )
??5af@@YA?AVarray@0@AEBV10@AEBE@Z
; class af::array __cdecl af::operator >>(class af::array const &__ptr64 ,short const &__ptr64 )
??5af@@YA?AVarray@0@AEBV10@AEBF@Z
; class af::array __cdecl af::operator >>(class af::array const &__ptr64 ,unsigned short const &__ptr64 )
??5af@@YA?AVarray@0@AEBV10@AEBG@Z
; class af::array __cdecl af::operator >>(class af::array const &__ptr64 ,int const &__ptr64 )
??5af@@YA?AVarray@0@AEBV10@AEBH@Z
; class af::array __cdecl af::operator >>(class af::array const &__ptr64 ,unsigned int const &__ptr64 )
??5af@@YA?AVarray@0@AEBV10@AEBI@Z
; class af::array __cdecl af::operator >>(class af::array const &__ptr64 ,long const &__ptr64 )
??5af@@YA?AVarray@0@AEBV10@AEBJ@Z
; class af::array __cdecl af::operator >>(class af::array const &__ptr64 ,unsigned long const &__ptr64 )
??5af@@YA?AVarray@0@AEBV10@AEBK@Z
; class af::array __cdecl af::operator >>(class af::array const &__ptr64 ,float const &__ptr64 )
??5af@@YA?AVarray@0@AEBV10@AEBM@Z
; class af::array __cdecl af::operator >>(class af::array const &__ptr64 ,double const &__ptr64 )
??5af@@YA?AVarray@0@AEBV10@AEBN@Z
; class af::array __cdecl af::operator >>(class af::array const &__ptr64 ,struct af::af_cdouble const &__ptr64 )
??5af@@YA?AVarray@0@AEBV10@AEBUaf_cdouble@0@@Z
; class af::array __cdecl af::operator >>(class af::array const &__ptr64 ,struct af::af_cfloat const &__ptr64 )
??5af@@YA?AVarray@0@AEBV10@AEBUaf_cfloat@0@@Z
; class af::array __cdecl af::operator >>(class af::array const &__ptr64 ,__int64 const &__ptr64 )
??5af@@YA?AVarray@0@AEBV10@AEB_J@Z
; class af::array __cdecl af::operator >>(class af::array const &__ptr64 ,unsigned __int64 const &__ptr64 )
??5af@@YA?AVarray@0@AEBV10@AEB_K@Z
; class af::array __cdecl af::operator >>(class af::array const &__ptr64 ,bool const &__ptr64 )
??5af@@YA?AVarray@0@AEBV10@AEB_N@Z
; class af::array __cdecl af::operator >>(__int64 const &__ptr64 ,class af::array const &__ptr64 )
??5af@@YA?AVarray@0@AEB_JAEBV10@@Z
; class af::array __cdecl af::operator >>(unsigned __int64 const &__ptr64 ,class af::array const &__ptr64 )
??5af@@YA?AVarray@0@AEB_KAEBV10@@Z
; class af::array __cdecl af::operator >>(bool const &__ptr64 ,class af::array const &__ptr64 )
??5af@@YA?AVarray@0@AEB_NAEBV10@@Z
; class std::<char,struct std::<char>> &__ptr64 __cdecl af::operator >>(class std::<char,struct std::<char>> &__ptr64 ,struct af::af_cdouble &__ptr64 )
??5af@@YAAEAV?$basic_istream@DU?$char_traits@D@std@@@std@@AEAV12@AEAUaf_cdouble@0@@Z
; class std::<char,struct std::<char>> &__ptr64 __cdecl af::operator >>(class std::<char,struct std::<char>> &__ptr64 ,struct af::af_cfloat &__ptr64 )
??5af@@YAAEAV?$basic_istream@DU?$char_traits@D@std@@@std@@AEAV12@AEAUaf_cfloat@0@@Z
; class af::array __cdecl af::operator <<(signed char const &__ptr64 ,class af::array const &__ptr64 )
??6af@@YA?AVarray@0@AEBCAEBV10@@Z
; class af::array __cdecl af::operator <<(char const &__ptr64 ,class af::array const &__ptr64 )
??6af@@YA?AVarray@0@AEBDAEBV10@@Z
; class af::array __cdecl af::operator <<(unsigned char const &__ptr64 ,class af::array const &__ptr64 )
??6af@@YA?AVarray@0@AEBEAEBV10@@Z
; class af::array __cdecl af::operator <<(short const &__ptr64 ,class af::array const &__ptr64 )
??6af@@YA?AVarray@0@AEBFAEBV10@@Z
; class af::array __cdecl af::operator <<(unsigned short const &__ptr64 ,class af::array const &__ptr64 )
??6af@@YA?AVarray@0@AEBGAEBV10@@Z
; class af::array __cdecl af::operator <<(int const &__ptr64 ,class af::array const &__ptr64 )
??6af@@YA?AVarray@0@AEBHAEBV10@@Z
; class af::array __cdecl af::operator <<(unsigned int const &__ptr64 ,class af::array const &__ptr64 )
??6af@@YA?AVarray@0@AEBIAEBV10@@Z
; class af::array __cdecl af::operator <<(long const &__ptr64 ,class af::array const &__ptr64 )
??6af@@YA?AVarray@0@AEBJAEBV10@@Z
; class af::array __cdecl af::operator <<(unsigned long const &__ptr64 ,class af::array const &__ptr64 )
??6af@@YA?AVarray@0@AEBKAEBV10@@Z
; class af::array __cdecl af::operator <<(float const &__ptr64 ,class af::array const &__ptr64 )
??6af@@YA?AVarray@0@AEBMAEBV10@@Z
; class af::array __cdecl af::operator <<(double const &__ptr64 ,class af::array const &__ptr64 )
??6af@@YA?AVarray@0@AEBNAEBV10@@Z
; class af::array __cdecl af::operator <<(struct af::af_cdouble const &__ptr64 ,class af::array const &__ptr64 )
??6af@@YA?AVarray@0@AEBUaf_cdouble@0@AEBV10@@Z
; class af::array __cdecl af::operator <<(struct af::af_cfloat const &__ptr64 ,class af::array const &__ptr64 )
??6af@@YA?AVarray@0@AEBUaf_cfloat@0@AEBV10@@Z
; class af::array __cdecl af::operator <<(class af::array const &__ptr64 ,class af::array const &__ptr64 )
??6af@@YA?AVarray@0@AEBV10@0@Z
; class af::array __cdecl af::operator <<(class af::array const &__ptr64 ,signed char const &__ptr64 )
??6af@@YA?AVarray@0@AEBV10@AEBC@Z
; class af::array __cdecl af::operator <<(class af::array const &__ptr64 ,char const &__ptr64 )
??6af@@YA?AVarray@0@AEBV10@AEBD@Z
; class af::array __cdecl af::operator <<(class af::array const &__ptr64 ,unsigned char const &__ptr64 )
??6af@@YA?AVarray@0@AEBV10@AEBE@Z
; class af::array __cdecl af::operator <<(class af::array const &__ptr64 ,short const &__ptr64 )
??6af@@YA?AVarray@0@AEBV10@AEBF@Z
; class af::array __cdecl af::operator <<(class af::array const &__ptr64 ,unsigned short const &__ptr64 )
??6af@@YA?AVarray@0@AEBV10@AEBG@Z
; class af::array __cdecl af::operator <<(class af::array const &__ptr64 ,int const &__ptr64 )
??6af@@YA?AVarray@0@AEBV10@AEBH@Z
; class af::array __cdecl af::operator <<(class af::array const &__ptr64 ,unsigned int const &__ptr64 )
??6af@@YA?AVarray@0@AEBV10@AEBI@Z
; class af::array __cdecl af::operator <<(class af::array const &__ptr64 ,long const &__ptr64 )
??6af@@YA?AVarray@0@AEBV10@AEBJ@Z
; class af::array __cdecl af::operator <<(class af::array const &__ptr64 ,unsigned long const &__ptr64 )
??6af@@YA?AVarray@0@AEBV10@AEBK@Z
; class af::array __cdecl af::operator <<(class af::array const &__ptr64 ,float const &__ptr64 )
??6af@@YA?AVarray@0@AEBV10@AEBM@Z
; class af::array __cdecl af::operator <<(class af::array const &__ptr64 ,double const &__ptr64 )
??6af@@YA?AVarray@0@AEBV10@AEBN@Z
; class af::array __cdecl af::operator <<(class af::array const &__ptr64 ,struct af::af_cdouble const &__ptr64 )
??6af@@YA?AVarray@0@AEBV10@AEBUaf_cdouble@0@@Z
; class af::array __cdecl af::operator <<(class af::array const &__ptr64 ,struct af::af_cfloat const &__ptr64 )
??6af@@YA?AVarray@0@AEBV10@AEBUaf_cfloat@0@@Z
; class af::array __cdecl af::operator <<(class af::array const &__ptr64 ,__int64 const &__ptr64 )
??6af@@YA?AVarray@0@AEBV10@AEB_J@Z
; class af::array __cdecl af::operator <<(class af::array const &__ptr64 ,unsigned __int64 const &__ptr64 )
??6af@@YA?AVarray@0@AEBV10@AEB_K@Z
; class af::array __cdecl af::operator <<(class af::array const &__ptr64 ,bool const &__ptr64 )
??6af@@YA?AVarray@0@AEBV10@AEB_N@Z
; class af::array __cdecl af::operator <<(__int64 const &__ptr64 ,class af::array const &__ptr64 )
??6af@@YA?AVarray@0@AEB_JAEBV10@@Z
; class af::array __cdecl af::operator <<(unsigned __int64 const &__ptr64 ,class af::array const &__ptr64 )
??6af@@YA?AVarray@0@AEB_KAEBV10@@Z
; class af::array __cdecl af::operator <<(bool const &__ptr64 ,class af::array const &__ptr64 )
??6af@@YA?AVarray@0@AEB_NAEBV10@@Z
; class std::<char,struct std::<char>> &__ptr64 __cdecl af::operator <<(class std::<char,struct std::<char>> &__ptr64 ,struct af::af_cdouble const &__ptr64 )
??6af@@YAAEAV?$basic_ostream@DU?$char_traits@D@std@@@std@@AEAV12@AEBUaf_cdouble@0@@Z
; class std::<char,struct std::<char>> &__ptr64 __cdecl af::operator <<(class std::<char,struct std::<char>> &__ptr64 ,struct af::af_cfloat const &__ptr64 )
??6af@@YAAEAV?$basic_ostream@DU?$char_traits@D@std@@@std@@AEAV12@AEBUaf_cfloat@0@@Z
; public: class af::array __cdecl af::array::operator !(void)const __ptr64 
??7array@af@@QEBA?AV01@XZ
; class af::array __cdecl af::operator ==(signed char const &__ptr64 ,class af::array const &__ptr64 )
??8af@@YA?AVarray@0@AEBCAEBV10@@Z
; class af::array __cdecl af::operator ==(char const &__ptr64 ,class af::array const &__ptr64 )
??8af@@YA?AVarray@0@AEBDAEBV10@@Z
; class af::array __cdecl af::operator ==(unsigned char const &__ptr64 ,class af::array const &__ptr64 )
??8af@@YA?AVarray@0@AEBEAEBV10@@Z
; class af::array __cdecl af::operator ==(short const &__ptr64 ,class af::array const &__ptr64 )
??8af@@YA?AVarray@0@AEBFAEBV10@@Z
; class af::array __cdecl af::operator ==(unsigned short const &__ptr64 ,class af::array const &__ptr64 )
??8af@@YA?AVarray@0@AEBGAEBV10@@Z
; class af::array __cdecl af::operator ==(int const &__ptr64 ,class af::array const &__ptr64 )
??8af@@YA?AVarray@0@AEBHAEBV10@@Z
; class af::array __cdecl af::operator ==(unsigned int const &__ptr64 ,class af::array const &__ptr64 )
??8af@@YA?AVarray@0@AEBIAEBV10@@Z
; class af::array __cdecl af::operator ==(long const &__ptr64 ,class af::array const &__ptr64 )
??8af@@YA?AVarray@0@AEBJAEBV10@@Z
; class af::array __cdecl af::operator ==(unsigned long const &__ptr64 ,class af::array const &__ptr64 )
??8af@@YA?AVarray@0@AEBKAEBV10@@Z
; class af::array __cdecl af::operator ==(float const &__ptr64 ,class af::array const &__ptr64 )
??8af@@YA?AVarray@0@AEBMAEBV10@@Z
; class af::array __cdecl af::operator ==(double const &__ptr64 ,class af::array const &__ptr64 )
??8af@@YA?AVarray@0@AEBNAEBV10@@Z
; class af::array __cdecl af::operator ==(struct af::af_cdouble const &__ptr64 ,class af::array const &__ptr64 )
??8af@@YA?AVarray@0@AEBUaf_cdouble@0@AEBV10@@Z
; class af::array __cdecl af::operator ==(struct af::af_cfloat const &__ptr64 ,class af::array const &__ptr64 )
??8af@@YA?AVarray@0@AEBUaf_cfloat@0@AEBV10@@Z
; class af::array __cdecl af::operator ==(class af::array const &__ptr64 ,class af::array const &__ptr64 )
??8af@@YA?AVarray@0@AEBV10@0@Z
; class af::array __cdecl af::operator ==(class af::array const &__ptr64 ,signed char const &__ptr64 )
??8af@@YA?AVarray@0@AEBV10@AEBC@Z
; class af::array __cdecl af::operator ==(class af::array const &__ptr64 ,char const &__ptr64 )
??8af@@YA?AVarray@0@AEBV10@AEBD@Z
; class af::array __cdecl af::operator ==(class af::array const &__ptr64 ,unsigned char const &__ptr64 )
??8af@@YA?AVarray@0@AEBV10@AEBE@Z
; class af::array __cdecl af::operator ==(class af::array const &__ptr64 ,short const &__ptr64 )
??8af@@YA?AVarray@0@AEBV10@AEBF@Z
; class af::array __cdecl af::operator ==(class af::array const &__ptr64 ,unsigned short const &__ptr64 )
??8af@@YA?AVarray@0@AEBV10@AEBG@Z
; class af::array __cdecl af::operator ==(class af::array const &__ptr64 ,int const &__ptr64 )
??8af@@YA?AVarray@0@AEBV10@AEBH@Z
; class af::array __cdecl af::operator ==(class af::array const &__ptr64 ,unsigned int const &__ptr64 )
??8af@@YA?AVarray@0@AEBV10@AEBI@Z
; class af::array __cdecl af::operator ==(class af::array const &__ptr64 ,long const &__ptr64 )
??8af@@YA?AVarray@0@AEBV10@AEBJ@Z
; class af::array __cdecl af::operator ==(class af::array const &__ptr64 ,unsigned long const &__ptr64 )
??8af@@YA?AVarray@0@AEBV10@AEBK@Z
; class af::array __cdecl af::operator ==(class af::array const &__ptr64 ,float const &__ptr64 )
??8af@@YA?AVarray@0@AEBV10@AEBM@Z
; class af::array __cdecl af::operator ==(class af::array const &__ptr64 ,double const &__ptr64 )
??8af@@YA?AVarray@0@AEBV10@AEBN@Z
; class af::array __cdecl af::operator ==(class af::array const &__ptr64 ,struct af::af_cdouble const &__ptr64 )
??8af@@YA?AVarray@0@AEBV10@AEBUaf_cdouble@0@@Z
; class af::array __cdecl af::operator ==(class af::array const &__ptr64 ,struct af::af_cfloat const &__ptr64 )
??8af@@YA?AVarray@0@AEBV10@AEBUaf_cfloat@0@@Z
; class af::array __cdecl af::operator ==(class af::array const &__ptr64 ,__int64 const &__ptr64 )
??8af@@YA?AVarray@0@AEBV10@AEB_J@Z
; class af::array __cdecl af::operator ==(class af::array const &__ptr64 ,unsigned __int64 const &__ptr64 )
??8af@@YA?AVarray@0@AEBV10@AEB_K@Z
; class af::array __cdecl af::operator ==(class af::array const &__ptr64 ,bool const &__ptr64 )
??8af@@YA?AVarray@0@AEBV10@AEB_N@Z
; class af::array __cdecl af::operator ==(__int64 const &__ptr64 ,class af::array const &__ptr64 )
??8af@@YA?AVarray@0@AEB_JAEBV10@@Z
; class af::array __cdecl af::operator ==(unsigned __int64 const &__ptr64 ,class af::array const &__ptr64 )
??8af@@YA?AVarray@0@AEB_KAEBV10@@Z
; class af::array __cdecl af::operator ==(bool const &__ptr64 ,class af::array const &__ptr64 )
??8af@@YA?AVarray@0@AEB_NAEBV10@@Z
; bool __cdecl af::operator ==(struct af::af_cdouble const &__ptr64 ,struct af::af_cdouble const &__ptr64 )
??8af@@YA_NAEBUaf_cdouble@0@0@Z
; bool __cdecl af::operator ==(struct af::af_cfloat const &__ptr64 ,struct af::af_cfloat const &__ptr64 )
??8af@@YA_NAEBUaf_cfloat@0@0@Z
; public: bool __cdecl af::dim4::operator ==(class af::dim4 const &__ptr64 )const __ptr64 
??8dim4@af@@QEBA_NAEBV01@@Z
; class af::array __cdecl af::operator !=(signed char const &__ptr64 ,class af::array const &__ptr64 )
??9af@@YA?AVarray@0@AEBCAEBV10@@Z
; class af::array __cdecl af::operator !=(char const &__ptr64 ,class af::array const &__ptr64 )
??9af@@YA?AVarray@0@AEBDAEBV10@@Z
; class af::array __cdecl af::operator !=(unsigned char const &__ptr64 ,class af::array const &__ptr64 )
??9af@@YA?AVarray@0@AEBEAEBV10@@Z
; class af::array __cdecl af::operator !=(short const &__ptr64 ,class af::array const &__ptr64 )
??9af@@YA?AVarray@0@AEBFAEBV10@@Z
; class af::array __cdecl af::operator !=(unsigned short const &__ptr64 ,class af::array const &__ptr64 )
??9af@@YA?AVarray@0@AEBGAEBV10@@Z
; class af::array __cdecl af::operator !=(int const &__ptr64 ,class af::array const &__ptr64 )
??9af@@YA?AVarray@0@AEBHAEBV10@@Z
; class af::array __cdecl af::operator !=(unsigned int const &__ptr64 ,class af::array const &__ptr64 )
??9af@@YA?AVarray@0@AEBIAEBV10@@Z
; class af::array __cdecl af::operator !=(long const &__ptr64 ,class af::array const &__ptr64 )
??9af@@YA?AVarray@0@AEBJAEBV10@@Z
; class af::array __cdecl af::operator !=(unsigned long const &__ptr64 ,class af::array const &__ptr64 )
??9af@@YA?AVarray@0@AEBKAEBV10@@Z
; class af::array __cdecl af::operator !=(float const &__ptr64 ,class af::array const &__ptr64 )
??9af@@YA?AVarray@0@AEBMAEBV10@@Z
; class af::array __cdecl af::operator !=(double const &__ptr64 ,class af::array const &__ptr64 )
??9af@@YA?AVarray@0@AEBNAEBV10@@Z
; class af::array __cdecl af::operator !=(struct af::af_cdouble const &__ptr64 ,class af::array const &__ptr64 )
??9af@@YA?AVarray@0@AEBUaf_cdouble@0@AEBV10@@Z
; class af::array __cdecl af::operator !=(struct af::af_cfloat const &__ptr64 ,class af::array const &__ptr64 )
??9af@@YA?AVarray@0@AEBUaf_cfloat@0@AEBV10@@Z
; class af::array __cdecl af::operator !=(class af::array const &__ptr64 ,class af::array const &__ptr64 )
??9af@@YA?AVarray@0@AEBV10@0@Z
; class af::array __cdecl af::operator !=(class af::array const &__ptr64 ,signed char const &__ptr64 )
??9af@@YA?AVarray@0@AEBV10@AEBC@Z
; class af::array __cdecl af::operator !=(class af::array const &__ptr64 ,char const &__ptr64 )
??9af@@YA?AVarray@0@AEBV10@AEBD@Z
; class af::array __cdecl af::operator !=(class af::array const &__ptr64 ,unsigned char const &__ptr64 )
??9af@@YA?AVarray@0@AEBV10@AEBE@Z
; class af::array __cdecl af::operator !=(class af::array const &__ptr64 ,short const &__ptr64 )
??9af@@YA?AVarray@0@AEBV10@AEBF@Z
; class af::array __cdecl af::operator !=(class af::array const &__ptr64 ,unsigned short const &__ptr64 )
??9af@@YA?AVarray@0@AEBV10@AEBG@Z
; class af::array __cdecl af::operator !=(class af::array const &__ptr64 ,int const &__ptr64 )
??9af@@YA?AVarray@0@AEBV10@AEBH@Z
; class af::array __cdecl af::operator !=(class af::array const &__ptr64 ,unsigned int const &__ptr64 )
??9af@@YA?AVarray@0@AEBV10@AEBI@Z
; class af::array __cdecl af::operator !=(class af::array const &__ptr64 ,long const &__ptr64 )
??9af@@YA?AVarray@0@AEBV10@AEBJ@Z
; class af::array __cdecl af::operator !=(class af::array const &__ptr64 ,unsigned long const &__ptr64 )
??9af@@YA?AVarray@0@AEBV10@AEBK@Z
; class af::array __cdecl af::operator !=(class af::array const &__ptr64 ,float const &__ptr64 )
??9af@@YA?AVarray@0@AEBV10@AEBM@Z
; class af::array __cdecl af::operator !=(class af::array const &__ptr64 ,double const &__ptr64 )
??9af@@YA?AVarray@0@AEBV10@AEBN@Z
; class af::array __cdecl af::operator !=(class af::array const &__ptr64 ,struct af::af_cdouble const &__ptr64 )
??9af@@YA?AVarray@0@AEBV10@AEBUaf_cdouble@0@@Z
; class af::array __cdecl af::operator !=(class af::array const &__ptr64 ,struct af::af_cfloat const &__ptr64 )
??9af@@YA?AVarray@0@AEBV10@AEBUaf_cfloat@0@@Z
; class af::array __cdecl af::operator !=(class af::array const &__ptr64 ,__int64 const &__ptr64 )
??9af@@YA?AVarray@0@AEBV10@AEB_J@Z
; class af::array __cdecl af::operator !=(class af::array const &__ptr64 ,unsigned __int64 const &__ptr64 )
??9af@@YA?AVarray@0@AEBV10@AEB_K@Z
; class af::array __cdecl af::operator !=(class af::array const &__ptr64 ,bool const &__ptr64 )
??9af@@YA?AVarray@0@AEBV10@AEB_N@Z
; class af::array __cdecl af::operator !=(__int64 const &__ptr64 ,class af::array const &__ptr64 )
??9af@@YA?AVarray@0@AEB_JAEBV10@@Z
; class af::array __cdecl af::operator !=(unsigned __int64 const &__ptr64 ,class af::array const &__ptr64 )
??9af@@YA?AVarray@0@AEB_KAEBV10@@Z
; class af::array __cdecl af::operator !=(bool const &__ptr64 ,class af::array const &__ptr64 )
??9af@@YA?AVarray@0@AEB_NAEBV10@@Z
; bool __cdecl af::operator !=(struct af::af_cdouble const &__ptr64 ,struct af::af_cdouble const &__ptr64 )
??9af@@YA_NAEBUaf_cdouble@0@0@Z
; bool __cdecl af::operator !=(struct af::af_cfloat const &__ptr64 ,struct af::af_cfloat const &__ptr64 )
??9af@@YA_NAEBUaf_cfloat@0@0@Z
; public: bool __cdecl af::dim4::operator !=(class af::dim4 const &__ptr64 )const __ptr64 
??9dim4@af@@QEBA_NAEBV01@@Z
; public: __int64 &__ptr64 __cdecl af::dim4::operator[](unsigned int)__ptr64 
??Adim4@af@@QEAAAEA_JI@Z
; public: __int64 const &__ptr64 __cdecl af::dim4::operator[](unsigned int)const __ptr64 
??Adim4@af@@QEBAAEB_JI@Z
; public: void __cdecl af::array::array_proxy::operator class af::array(...)__ptr64 throw()
??Barray_proxy@array@af@@QEAA?AV12@XZ
; public: void __cdecl af::array::array_proxy::operator class af::array(...)const __ptr64 throw()
??Barray_proxy@array@af@@QEBA?AV12@XZ
; public: void __cdecl af::seq::operator class af::array(...)const __ptr64 throw()
??Bseq@af@@QEBA?AVarray@1@XZ
; struct af::af_cdouble __cdecl af::operator *(double const &__ptr64 ,struct af::af_cdouble const &__ptr64 )
??Daf@@YA?AUaf_cdouble@0@AEBNAEBU10@@Z
; struct af::af_cdouble __cdecl af::operator *(struct af::af_cdouble const &__ptr64 ,struct af::af_cdouble const &__ptr64 )
??Daf@@YA?AUaf_cdouble@0@AEBU10@0@Z
; struct af::af_cdouble __cdecl af::operator *(struct af::af_cdouble const &__ptr64 ,double const &__ptr64 )
??Daf@@YA?AUaf_cdouble@0@AEBU10@AEBN@Z
; struct af::af_cdouble __cdecl af::operator *(struct af::af_cdouble const &__ptr64 ,struct af::af_cfloat const &__ptr64 )
??Daf@@YA?AUaf_cdouble@0@AEBU10@AEBUaf_cfloat@0@@Z
; struct af::af_cdouble __cdecl af::operator *(struct af::af_cfloat const &__ptr64 ,struct af::af_cdouble const &__ptr64 )
??Daf@@YA?AUaf_cdouble@0@AEBUaf_cfloat@0@AEBU10@@Z
; struct af::af_cfloat __cdecl af::operator *(double const &__ptr64 ,struct af::af_cfloat const &__ptr64 )
??Daf@@YA?AUaf_cfloat@0@AEBNAEBU10@@Z
; struct af::af_cfloat __cdecl af::operator *(struct af::af_cfloat const &__ptr64 ,struct af::af_cfloat const &__ptr64 )
??Daf@@YA?AUaf_cfloat@0@AEBU10@0@Z
; struct af::af_cfloat __cdecl af::operator *(struct af::af_cfloat const &__ptr64 ,double const &__ptr64 )
??Daf@@YA?AUaf_cfloat@0@AEBU10@AEBN@Z
; class af::array __cdecl af::operator *(signed char const &__ptr64 ,class af::array const &__ptr64 )
??Daf@@YA?AVarray@0@AEBCAEBV10@@Z
; class af::array __cdecl af::operator *(char const &__ptr64 ,class af::array const &__ptr64 )
??Daf@@YA?AVarray@0@AEBDAEBV10@@Z
; class af::array __cdecl af::operator *(unsigned char const &__ptr64 ,class af::array const &__ptr64 )
??Daf@@YA?AVarray@0@AEBEAEBV10@@Z
; class af::array __cdecl af::operator *(short const &__ptr64 ,class af::array const &__ptr64 )
??Daf@@YA?AVarray@0@AEBFAEBV10@@Z
; class af::array __cdecl af::operator *(unsigned short const &__ptr64 ,class af::array const &__ptr64 )
??Daf@@YA?AVarray@0@AEBGAEBV10@@Z
; class af::array __cdecl af::operator *(int const &__ptr64 ,class af::array const &__ptr64 )
??Daf@@YA?AVarray@0@AEBHAEBV10@@Z
; class af::array __cdecl af::operator *(unsigned int const &__ptr64 ,class af::array const &__ptr64 )
??Daf@@YA?AVarray@0@AEBIAEBV10@@Z
; class af::array __cdecl af::operator *(long const &__ptr64 ,class af::array const &__ptr64 )
??Daf@@YA?AVarray@0@AEBJAEBV10@@Z
; class af::array __cdecl af::operator *(unsigned long const &__ptr64 ,class af::array const &__ptr64 )
??Daf@@YA?AVarray@0@AEBKAEBV10@@Z
; class af::array __cdecl af::operator *(float const &__ptr64 ,class af::array const &__ptr64 )
??Daf@@YA?AVarray@0@AEBMAEBV10@@Z
; class af::array __cdecl af::operator *(double const &__ptr64 ,class af::array const &__ptr64 )
??Daf@@YA?AVarray@0@AEBNAEBV10@@Z
; class af::array __cdecl af::operator *(struct af::af_cdouble const &__ptr64 ,class af::array const &__ptr64 )
??Daf@@YA?AVarray@0@AEBUaf_cdouble@0@AEBV10@@Z
; class af::array __cdecl af::operator *(struct af::af_cfloat const &__ptr64 ,class af::array const &__ptr64 )
??Daf@@YA?AVarray@0@AEBUaf_cfloat@0@AEBV10@@Z
; class af::array __cdecl af::operator *(class af::array const &__ptr64 ,class af::array const &__ptr64 )
??Daf@@YA?AVarray@0@AEBV10@0@Z
; class af::array __cdecl af::operator *(class af::array const &__ptr64 ,signed char const &__ptr64 )
??Daf@@YA?AVarray@0@AEBV10@AEBC@Z
; class af::array __cdecl af::operator *(class af::array const &__ptr64 ,char const &__ptr64 )
??Daf@@YA?AVarray@0@AEBV10@AEBD@Z
; class af::array __cdecl af::operator *(class af::array const &__ptr64 ,unsigned char const &__ptr64 )
??Daf@@YA?AVarray@0@AEBV10@AEBE@Z
; class af::array __cdecl af::operator *(class af::array const &__ptr64 ,short const &__ptr64 )
??Daf@@YA?AVarray@0@AEBV10@AEBF@Z
; class af::array __cdecl af::operator *(class af::array const &__ptr64 ,unsigned short const &__ptr64 )
??Daf@@YA?AVarray@0@AEBV10@AEBG@Z
; class af::array __cdecl af::operator *(class af::array const &__ptr64 ,int const &__ptr64 )
??Daf@@YA?AVarray@0@AEBV10@AEBH@Z
; class af::array __cdecl af::operator *(class af::array const &__ptr64 ,unsigned int const &__ptr64 )
??Daf@@YA?AVarray@0@AEBV10@AEBI@Z
; class af::array __cdecl af::operator *(class af::array const &__ptr64 ,long const &__ptr64 )
??Daf@@YA?AVarray@0@AEBV10@AEBJ@Z
; class af::array __cdecl af::operator *(class af::array const &__ptr64 ,unsigned long const &__ptr64 )
??Daf@@YA?AVarray@0@AEBV10@AEBK@Z
; class af::array __cdecl af::operator *(class af::array const &__ptr64 ,float const &__ptr64 )
??Daf@@YA?AVarray@0@AEBV10@AEBM@Z
; class af::array __cdecl af::operator *(class af::array const &__ptr64 ,double const &__ptr64 )
??Daf@@YA?AVarray@0@AEBV10@AEBN@Z
; class af::array __cdecl af::operator *(class af::array const &__ptr64 ,struct af::af_cdouble const &__ptr64 )
??Daf@@YA?AVarray@0@AEBV10@AEBUaf_cdouble@0@@Z
; class af::array __cdecl af::operator *(class af::array const &__ptr64 ,struct af::af_cfloat const &__ptr64 )
??Daf@@YA?AVarray@0@AEBV10@AEBUaf_cfloat@0@@Z
; class af::array __cdecl af::operator *(class af::array const &__ptr64 ,__int64 const &__ptr64 )
??Daf@@YA?AVarray@0@AEBV10@AEB_J@Z
; class af::array __cdecl af::operator *(class af::array const &__ptr64 ,unsigned __int64 const &__ptr64 )
??Daf@@YA?AVarray@0@AEBV10@AEB_K@Z
; class af::array __cdecl af::operator *(class af::array const &__ptr64 ,bool const &__ptr64 )
??Daf@@YA?AVarray@0@AEBV10@AEB_N@Z
; class af::array __cdecl af::operator *(__int64 const &__ptr64 ,class af::array const &__ptr64 )
??Daf@@YA?AVarray@0@AEB_JAEBV10@@Z
; class af::array __cdecl af::operator *(unsigned __int64 const &__ptr64 ,class af::array const &__ptr64 )
??Daf@@YA?AVarray@0@AEB_KAEBV10@@Z
; class af::array __cdecl af::operator *(bool const &__ptr64 ,class af::array const &__ptr64 )
??Daf@@YA?AVarray@0@AEB_NAEBV10@@Z
; class af::dim4 __cdecl af::operator *(class af::dim4 const &__ptr64 ,class af::dim4 const &__ptr64 )
??Daf@@YA?AVdim4@0@AEBV10@0@Z
; public: class af::seq __cdecl af::seq::operator *(double)__ptr64 
??Dseq@af@@QEAA?AV01@N@Z
; struct af::af_cdouble __cdecl af::operator -(double const &__ptr64 ,struct af::af_cdouble const &__ptr64 )
??Gaf@@YA?AUaf_cdouble@0@AEBNAEBU10@@Z
; struct af::af_cdouble __cdecl af::operator -(struct af::af_cdouble const &__ptr64 ,struct af::af_cdouble const &__ptr64 )
??Gaf@@YA?AUaf_cdouble@0@AEBU10@0@Z
; struct af::af_cdouble __cdecl af::operator -(struct af::af_cdouble const &__ptr64 ,double const &__ptr64 )
??Gaf@@YA?AUaf_cdouble@0@AEBU10@AEBN@Z
; struct af::af_cdouble __cdecl af::operator -(struct af::af_cdouble const &__ptr64 ,struct af::af_cfloat const &__ptr64 )
??Gaf@@YA?AUaf_cdouble@0@AEBU10@AEBUaf_cfloat@0@@Z
; struct af::af_cdouble __cdecl af::operator -(struct af::af_cfloat const &__ptr64 ,struct af::af_cdouble const &__ptr64 )
??Gaf@@YA?AUaf_cdouble@0@AEBUaf_cfloat@0@AEBU10@@Z
; struct af::af_cfloat __cdecl af::operator -(double const &__ptr64 ,struct af::af_cfloat const &__ptr64 )
??Gaf@@YA?AUaf_cfloat@0@AEBNAEBU10@@Z
; struct af::af_cfloat __cdecl af::operator -(struct af::af_cfloat const &__ptr64 ,struct af::af_cfloat const &__ptr64 )
??Gaf@@YA?AUaf_cfloat@0@AEBU10@0@Z
; struct af::af_cfloat __cdecl af::operator -(struct af::af_cfloat const &__ptr64 ,double const &__ptr64 )
??Gaf@@YA?AUaf_cfloat@0@AEBU10@AEBN@Z
; class af::array __cdecl af::operator -(signed char const &__ptr64 ,class af::array const &__ptr64 )
??Gaf@@YA?AVarray@0@AEBCAEBV10@@Z
; class af::array __cdecl af::operator -(char const &__ptr64 ,class af::array const &__ptr64 )
??Gaf@@YA?AVarray@0@AEBDAEBV10@@Z
; class af::array __cdecl af::operator -(unsigned char const &__ptr64 ,class af::array const &__ptr64 )
??Gaf@@YA?AVarray@0@AEBEAEBV10@@Z
; class af::array __cdecl af::operator -(short const &__ptr64 ,class af::array const &__ptr64 )
??Gaf@@YA?AVarray@0@AEBFAEBV10@@Z
; class af::array __cdecl af::operator -(unsigned short const &__ptr64 ,class af::array const &__ptr64 )
??Gaf@@YA?AVarray@0@AEBGAEBV10@@Z
; class af::array __cdecl af::operator -(int const &__ptr64 ,class af::array const &__ptr64 )
??Gaf@@YA?AVarray@0@AEBHAEBV10@@Z
; class af::array __cdecl af::operator -(unsigned int const &__ptr64 ,class af::array const &__ptr64 )
??Gaf@@YA?AVarray@0@AEBIAEBV10@@Z
; class af::array __cdecl af::operator -(long const &__ptr64 ,class af::array const &__ptr64 )
??Gaf@@YA?AVarray@0@AEBJAEBV10@@Z
; class af::array __cdecl af::operator -(unsigned long const &__ptr64 ,class af::array const &__ptr64 )
??Gaf@@YA?AVarray@0@AEBKAEBV10@@Z
; class af::array __cdecl af::operator -(float const &__ptr64 ,class af::array const &__ptr64 )
??Gaf@@YA?AVarray@0@AEBMAEBV10@@Z
; class af::array __cdecl af::operator -(double const &__ptr64 ,class af::array const &__ptr64 )
??Gaf@@YA?AVarray@0@AEBNAEBV10@@Z
; class af::array __cdecl af::operator -(struct af::af_cdouble const &__ptr64 ,class af::array const &__ptr64 )
??Gaf@@YA?AVarray@0@AEBUaf_cdouble@0@AEBV10@@Z
; class af::array __cdecl af::operator -(struct af::af_cfloat const &__ptr64 ,class af::array const &__ptr64 )
??Gaf@@YA?AVarray@0@AEBUaf_cfloat@0@AEBV10@@Z
; class af::array __cdecl af::operator -(class af::array const &__ptr64 ,class af::array const &__ptr64 )
??Gaf@@YA?AVarray@0@AEBV10@0@Z
; class af::array __cdecl af::operator -(class af::array const &__ptr64 ,signed char const &__ptr64 )
??Gaf@@YA?AVarray@0@AEBV10@AEBC@Z
; class af::array __cdecl af::operator -(class af::array const &__ptr64 ,char const &__ptr64 )
??Gaf@@YA?AVarray@0@AEBV10@AEBD@Z
; class af::array __cdecl af::operator -(class af::array const &__ptr64 ,unsigned char const &__ptr64 )
??Gaf@@YA?AVarray@0@AEBV10@AEBE@Z
; class af::array __cdecl af::operator -(class af::array const &__ptr64 ,short const &__ptr64 )
??Gaf@@YA?AVarray@0@AEBV10@AEBF@Z
; class af::array __cdecl af::operator -(class af::array const &__ptr64 ,unsigned short const &__ptr64 )
??Gaf@@YA?AVarray@0@AEBV10@AEBG@Z
; class af::array __cdecl af::operator -(class af::array const &__ptr64 ,int const &__ptr64 )
??Gaf@@YA?AVarray@0@AEBV10@AEBH@Z
; class af::array __cdecl af::operator -(class af::array const &__ptr64 ,unsigned int const &__ptr64 )
??Gaf@@YA?AVarray@0@AEBV10@AEBI@Z
; class af::array __cdecl af::operator -(class af::array const &__ptr64 ,long const &__ptr64 )
??Gaf@@YA?AVarray@0@AEBV10@AEBJ@Z
; class af::array __cdecl af::operator -(class af::array const &__ptr64 ,unsigned long const &__ptr64 )
??Gaf@@YA?AVarray@0@AEBV10@AEBK@Z
; class af::array __cdecl af::operator -(class af::array const &__ptr64 ,float const &__ptr64 )
??Gaf@@YA?AVarray@0@AEBV10@AEBM@Z
; class af::array __cdecl af::operator -(class af::array const &__ptr64 ,double const &__ptr64 )
??Gaf@@YA?AVarray@0@AEBV10@AEBN@Z
; class af::array __cdecl af::operator -(class af::array const &__ptr64 ,struct af::af_cdouble const &__ptr64 )
??Gaf@@YA?AVarray@0@AEBV10@AEBUaf_cdouble@0@@Z
; class af::array __cdecl af::operator -(class af::array const &__ptr64 ,struct af::af_cfloat const &__ptr64 )
??Gaf@@YA?AVarray@0@AEBV10@AEBUaf_cfloat@0@@Z
; class af::array __cdecl af::operator -(class af::array const &__ptr64 ,__int64 const &__ptr64 )
??Gaf@@YA?AVarray@0@AEBV10@AEB_J@Z
; class af::array __cdecl af::operator -(class af::array const &__ptr64 ,unsigned __int64 const &__ptr64 )
??Gaf@@YA?AVarray@0@AEBV10@AEB_K@Z
; class af::array __cdecl af::operator -(class af::array const &__ptr64 ,bool const &__ptr64 )
??Gaf@@YA?AVarray@0@AEBV10@AEB_N@Z
; class af::array __cdecl af::operator -(__int64 const &__ptr64 ,class af::array const &__ptr64 )
??Gaf@@YA?AVarray@0@AEB_JAEBV10@@Z
; class af::array __cdecl af::operator -(unsigned __int64 const &__ptr64 ,class af::array const &__ptr64 )
??Gaf@@YA?AVarray@0@AEB_KAEBV10@@Z
; class af::array __cdecl af::operator -(bool const &__ptr64 ,class af::array const &__ptr64 )
??Gaf@@YA?AVarray@0@AEB_NAEBV10@@Z
; class af::dim4 __cdecl af::operator -(class af::dim4 const &__ptr64 ,class af::dim4 const &__ptr64 )
??Gaf@@YA?AVdim4@0@AEBV10@0@Z
; public: class af::array __cdecl af::array::operator -(void)const __ptr64 
??Garray@af@@QEBA?AV01@XZ
; public: class af::seq __cdecl af::seq::operator -(double)__ptr64 
??Gseq@af@@QEAA?AV01@N@Z
; public: class af::seq __cdecl af::seq::operator -(void)__ptr64 
??Gseq@af@@QEAA?AV01@XZ
; struct af::af_cdouble __cdecl af::operator +(double const &__ptr64 ,struct af::af_cdouble const &__ptr64 )
??Haf@@YA?AUaf_cdouble@0@AEBNAEBU10@@Z
; struct af::af_cdouble __cdecl af::operator +(struct af::af_cdouble const &__ptr64 ,struct af::af_cdouble const &__ptr64 )
??Haf@@YA?AUaf_cdouble@0@AEBU10@0@Z
; struct af::af_cdouble __cdecl af::operator +(struct af::af_cdouble const &__ptr64 ,double const &__ptr64 )
??Haf@@YA?AUaf_cdouble@0@AEBU10@AEBN@Z
; struct af::af_cdouble __cdecl af::operator +(struct af::af_cdouble const &__ptr64 ,struct af::af_cfloat const &__ptr64 )
??Haf@@YA?AUaf_cdouble@0@AEBU10@AEBUaf_cfloat@0@@Z
; struct af::af_cdouble __cdecl af::operator +(struct af::af_cfloat const &__ptr64 ,struct af::af_cdouble const &__ptr64 )
??Haf@@YA?AUaf_cdouble@0@AEBUaf_cfloat@0@AEBU10@@Z
; struct af::af_cfloat __cdecl af::operator +(double const &__ptr64 ,struct af::af_cfloat const &__ptr64 )
??Haf@@YA?AUaf_cfloat@0@AEBNAEBU10@@Z
; struct af::af_cfloat __cdecl af::operator +(struct af::af_cfloat const &__ptr64 ,struct af::af_cfloat const &__ptr64 )
??Haf@@YA?AUaf_cfloat@0@AEBU10@0@Z
; struct af::af_cfloat __cdecl af::operator +(struct af::af_cfloat const &__ptr64 ,double const &__ptr64 )
??Haf@@YA?AUaf_cfloat@0@AEBU10@AEBN@Z
; class af::array __cdecl af::operator +(signed char const &__ptr64 ,class af::array const &__ptr64 )
??Haf@@YA?AVarray@0@AEBCAEBV10@@Z
; class af::array __cdecl af::operator +(char const &__ptr64 ,class af::array const &__ptr64 )
??Haf@@YA?AVarray@0@AEBDAEBV10@@Z
; class af::array __cdecl af::operator +(unsigned char const &__ptr64 ,class af::array const &__ptr64 )
??Haf@@YA?AVarray@0@AEBEAEBV10@@Z
; class af::array __cdecl af::operator +(short const &__ptr64 ,class af::array const &__ptr64 )
??Haf@@YA?AVarray@0@AEBFAEBV10@@Z
; class af::array __cdecl af::operator +(unsigned short const &__ptr64 ,class af::array const &__ptr64 )
??Haf@@YA?AVarray@0@AEBGAEBV10@@Z
; class af::array __cdecl af::operator +(int const &__ptr64 ,class af::array const &__ptr64 )
??Haf@@YA?AVarray@0@AEBHAEBV10@@Z
; class af::array __cdecl af::operator +(unsigned int const &__ptr64 ,class af::array const &__ptr64 )
??Haf@@YA?AVarray@0@AEBIAEBV10@@Z
; class af::array __cdecl af::operator +(long const &__ptr64 ,class af::array const &__ptr64 )
??Haf@@YA?AVarray@0@AEBJAEBV10@@Z
; class af::array __cdecl af::operator +(unsigned long const &__ptr64 ,class af::array const &__ptr64 )
??Haf@@YA?AVarray@0@AEBKAEBV10@@Z
; class af::array __cdecl af::operator +(float const &__ptr64 ,class af::array const &__ptr64 )
??Haf@@YA?AVarray@0@AEBMAEBV10@@Z
; class af::array __cdecl af::operator +(double const &__ptr64 ,class af::array const &__ptr64 )
??Haf@@YA?AVarray@0@AEBNAEBV10@@Z
; class af::array __cdecl af::operator +(struct af::af_cdouble const &__ptr64 ,class af::array const &__ptr64 )
??Haf@@YA?AVarray@0@AEBUaf_cdouble@0@AEBV10@@Z
; class af::array __cdecl af::operator +(struct af::af_cfloat const &__ptr64 ,class af::array const &__ptr64 )
??Haf@@YA?AVarray@0@AEBUaf_cfloat@0@AEBV10@@Z
; class af::array __cdecl af::operator +(class af::array const &__ptr64 ,class af::array const &__ptr64 )
??Haf@@YA?AVarray@0@AEBV10@0@Z
; class af::array __cdecl af::operator +(class af::array const &__ptr64 ,signed char const &__ptr64 )
??Haf@@YA?AVarray@0@AEBV10@AEBC@Z
; class af::array __cdecl af::operator +(class af::array const &__ptr64 ,char const &__ptr64 )
??Haf@@YA?AVarray@0@AEBV10@AEBD@Z
; class af::array __cdecl af::operator +(class af::array const &__ptr64 ,unsigned char const &__ptr64 )
??Haf@@YA?AVarray@0@AEBV10@AEBE@Z
; class af::array __cdecl af::operator +(class af::array const &__ptr64 ,short const &__ptr64 )
??Haf@@YA?AVarray@0@AEBV10@AEBF@Z
; class af::array __cdecl af::operator +(class af::array const &__ptr64 ,unsigned short const &__ptr64 )
??Haf@@YA?AVarray@0@AEBV10@AEBG@Z
; class af::array __cdecl af::operator +(class af::array const &__ptr64 ,int const &__ptr64 )
??Haf@@YA?AVarray@0@AEBV10@AEBH@Z
; class af::array __cdecl af::operator +(class af::array const &__ptr64 ,unsigned int const &__ptr64 )
??Haf@@YA?AVarray@0@AEBV10@AEBI@Z
; class af::array __cdecl af::operator +(class af::array const &__ptr64 ,long const &__ptr64 )
??Haf@@YA?AVarray@0@AEBV10@AEBJ@Z
; class af::array __cdecl af::operator +(class af::array const &__ptr64 ,unsigned long const &__ptr64 )
??Haf@@YA?AVarray@0@AEBV10@AEBK@Z
; class af::array __cdecl af::operator +(class af::array const &__ptr64 ,float const &__ptr64 )
??Haf@@YA?AVarray@0@AEBV10@AEBM@Z
; class af::array __cdecl af::operator +(class af::array const &__ptr64 ,double const &__ptr64 )
??Haf@@YA?AVarray@0@AEBV10@AEBN@Z
; class af::array __cdecl af::operator +(class af::array const &__ptr64 ,struct af::af_cdouble const &__ptr64 )
??Haf@@YA?AVarray@0@AEBV10@AEBUaf_cdouble@0@@Z
; class af::array __cdecl af::operator +(class af::array const &__ptr64 ,struct af::af_cfloat const &__ptr64 )
??Haf@@YA?AVarray@0@AEBV10@AEBUaf_cfloat@0@@Z
; class af::array __cdecl af::operator +(class af::array const &__ptr64 ,__int64 const &__ptr64 )
??Haf@@YA?AVarray@0@AEBV10@AEB_J@Z
; class af::array __cdecl af::operator +(class af::array const &__ptr64 ,unsigned __int64 const &__ptr64 )
??Haf@@YA?AVarray@0@AEBV10@AEB_K@Z
; class af::array __cdecl af::operator +(class af::array const &__ptr64 ,bool const &__ptr64 )
??Haf@@YA?AVarray@0@AEBV10@AEB_N@Z
; class af::array __cdecl af::operator +(__int64 const &__ptr64 ,class af::array const &__ptr64 )
??Haf@@YA?AVarray@0@AEB_JAEBV10@@Z
; class af::array __cdecl af::operator +(unsigned __int64 const &__ptr64 ,class af::array const &__ptr64 )
??Haf@@YA?AVarray@0@AEB_KAEBV10@@Z
; class af::array __cdecl af::operator +(bool const &__ptr64 ,class af::array const &__ptr64 )
??Haf@@YA?AVarray@0@AEB_NAEBV10@@Z
; class af::dim4 __cdecl af::operator +(class af::dim4 const &__ptr64 ,class af::dim4 const &__ptr64 )
??Haf@@YA?AVdim4@0@AEBV10@0@Z
; public: class af::seq __cdecl af::seq::operator +(double)__ptr64 
??Hseq@af@@QEAA?AV01@N@Z
; class af::array __cdecl af::operator &(signed char const &__ptr64 ,class af::array const &__ptr64 )
??Iaf@@YA?AVarray@0@AEBCAEBV10@@Z
; class af::array __cdecl af::operator &(char const &__ptr64 ,class af::array const &__ptr64 )
??Iaf@@YA?AVarray@0@AEBDAEBV10@@Z
; class af::array __cdecl af::operator &(unsigned char const &__ptr64 ,class af::array const &__ptr64 )
??Iaf@@YA?AVarray@0@AEBEAEBV10@@Z
; class af::array __cdecl af::operator &(short const &__ptr64 ,class af::array const &__ptr64 )
??Iaf@@YA?AVarray@0@AEBFAEBV10@@Z
; class af::array __cdecl af::operator &(unsigned short const &__ptr64 ,class af::array const &__ptr64 )
??Iaf@@YA?AVarray@0@AEBGAEBV10@@Z
; class af::array __cdecl af::operator &(int const &__ptr64 ,class af::array const &__ptr64 )
??Iaf@@YA?AVarray@0@AEBHAEBV10@@Z
; class af::array __cdecl af::operator &(unsigned int const &__ptr64 ,class af::array const &__ptr64 )
??Iaf@@YA?AVarray@0@AEBIAEBV10@@Z
; class af::array __cdecl af::operator &(long const &__ptr64 ,class af::array const &__ptr64 )
??Iaf@@YA?AVarray@0@AEBJAEBV10@@Z
; class af::array __cdecl af::operator &(unsigned long const &__ptr64 ,class af::array const &__ptr64 )
??Iaf@@YA?AVarray@0@AEBKAEBV10@@Z
; class af::array __cdecl af::operator &(float const &__ptr64 ,class af::array const &__ptr64 )
??Iaf@@YA?AVarray@0@AEBMAEBV10@@Z
; class af::array __cdecl af::operator &(double const &__ptr64 ,class af::array const &__ptr64 )
??Iaf@@YA?AVarray@0@AEBNAEBV10@@Z
; class af::array __cdecl af::operator &(struct af::af_cdouble const &__ptr64 ,class af::array const &__ptr64 )
??Iaf@@YA?AVarray@0@AEBUaf_cdouble@0@AEBV10@@Z
; class af::array __cdecl af::operator &(struct af::af_cfloat const &__ptr64 ,class af::array const &__ptr64 )
??Iaf@@YA?AVarray@0@AEBUaf_cfloat@0@AEBV10@@Z
; class af::array __cdecl af::operator &(class af::array const &__ptr64 ,class af::array const &__ptr64 )
??Iaf@@YA?AVarray@0@AEBV10@0@Z
; class af::array __cdecl af::operator &(class af::array const &__ptr64 ,signed char const &__ptr64 )
??Iaf@@YA?AVarray@0@AEBV10@AEBC@Z
; class af::array __cdecl af::operator &(class af::array const &__ptr64 ,char const &__ptr64 )
??Iaf@@YA?AVarray@0@AEBV10@AEBD@Z
; class af::array __cdecl af::operator &(class af::array const &__ptr64 ,unsigned char const &__ptr64 )
??Iaf@@YA?AVarray@0@AEBV10@AEBE@Z
; class af::array __cdecl af::operator &(class af::array const &__ptr64 ,short const &__ptr64 )
??Iaf@@YA?AVarray@0@AEBV10@AEBF@Z
; class af::array __cdecl af::operator &(class af::array const &__ptr64 ,unsigned short const &__ptr64 )
??Iaf@@YA?AVarray@0@AEBV10@AEBG@Z
; class af::array __cdecl af::operator &(class af::array const &__ptr64 ,int const &__ptr64 )
??Iaf@@YA?AVarray@0@AEBV10@AEBH@Z
; class af::array __cdecl af::operator &(class af::array const &__ptr64 ,unsigned int const &__ptr64 )
??Iaf@@YA?AVarray@0@AEBV10@AEBI@Z
; class af::array __cdecl af::operator &(class af::array const &__ptr64 ,long const &__ptr64 )
??Iaf@@YA?AVarray@0@AEBV10@AEBJ@Z
; class af::array __cdecl af::operator &(class af::array const &__ptr64 ,unsigned long const &__ptr64 )
??Iaf@@YA?AVarray@0@AEBV10@AEBK@Z
; class af::array __cdecl af::operator &(class af::array const &__ptr64 ,float const &__ptr64 )
??Iaf@@YA?AVarray@0@AEBV10@AEBM@Z
; class af::array __cdecl af::operator &(class af::array const &__ptr64 ,double const &__ptr64 )
??Iaf@@YA?AVarray@0@AEBV10@AEBN@Z
; class af::array __cdecl af::operator &(class af::array const &__ptr64 ,struct af::af_cdouble const &__ptr64 )
??Iaf@@YA?AVarray@0@AEBV10@AEBUaf_cdouble@0@@Z
; class af::array __cdecl af::operator &(class af::array const &__ptr64 ,struct af::af_cfloat const &__ptr64 )
??Iaf@@YA?AVarray@0@AEBV10@AEBUaf_cfloat@0@@Z
; class af::array __cdecl af::operator &(class af::array const &__ptr64 ,__int64 const &__ptr64 )
??Iaf@@YA?AVarray@0@AEBV10@AEB_J@Z
; class af::array __cdecl af::operator &(class af::array const &__ptr64 ,unsigned __int64 const &__ptr64 )
??Iaf@@YA?AVarray@0@AEBV10@AEB_K@Z
; class af::array __cdecl af::operator &(class af::array const &__ptr64 ,bool const &__ptr64 )
??Iaf@@YA?AVarray@0@AEBV10@AEB_N@Z
; class af::array __cdecl af::operator &(__int64 const &__ptr64 ,class af::array const &__ptr64 )
??Iaf@@YA?AVarray@0@AEB_JAEBV10@@Z
; class af::array __cdecl af::operator &(unsigned __int64 const &__ptr64 ,class af::array const &__ptr64 )
??Iaf@@YA?AVarray@0@AEB_KAEBV10@@Z
; class af::array __cdecl af::operator &(bool const &__ptr64 ,class af::array const &__ptr64 )
??Iaf@@YA?AVarray@0@AEB_NAEBV10@@Z
; struct af::af_cdouble __cdecl af::operator /(double const &__ptr64 ,struct af::af_cdouble const &__ptr64 )
??Kaf@@YA?AUaf_cdouble@0@AEBNAEBU10@@Z
; struct af::af_cdouble __cdecl af::operator /(struct af::af_cdouble const &__ptr64 ,struct af::af_cdouble const &__ptr64 )
??Kaf@@YA?AUaf_cdouble@0@AEBU10@0@Z
; struct af::af_cdouble __cdecl af::operator /(struct af::af_cdouble const &__ptr64 ,double const &__ptr64 )
??Kaf@@YA?AUaf_cdouble@0@AEBU10@AEBN@Z
; struct af::af_cdouble __cdecl af::operator /(struct af::af_cdouble const &__ptr64 ,struct af::af_cfloat const &__ptr64 )
??Kaf@@YA?AUaf_cdouble@0@AEBU10@AEBUaf_cfloat@0@@Z
; struct af::af_cdouble __cdecl af::operator /(struct af::af_cfloat const &__ptr64 ,struct af::af_cdouble const &__ptr64 )
??Kaf@@YA?AUaf_cdouble@0@AEBUaf_cfloat@0@AEBU10@@Z
; struct af::af_cfloat __cdecl af::operator /(double const &__ptr64 ,struct af::af_cfloat const &__ptr64 )
??Kaf@@YA?AUaf_cfloat@0@AEBNAEBU10@@Z
; struct af::af_cfloat __cdecl af::operator /(struct af::af_cfloat const &__ptr64 ,struct af::af_cfloat const &__ptr64 )
??Kaf@@YA?AUaf_cfloat@0@AEBU10@0@Z
; struct af::af_cfloat __cdecl af::operator /(struct af::af_cfloat const &__ptr64 ,double const &__ptr64 )
??Kaf@@YA?AUaf_cfloat@0@AEBU10@AEBN@Z
; class af::array __cdecl af::operator /(signed char const &__ptr64 ,class af::array const &__ptr64 )
??Kaf@@YA?AVarray@0@AEBCAEBV10@@Z
; class af::array __cdecl af::operator /(char const &__ptr64 ,class af::array const &__ptr64 )
??Kaf@@YA?AVarray@0@AEBDAEBV10@@Z
; class af::array __cdecl af::operator /(unsigned char const &__ptr64 ,class af::array const &__ptr64 )
??Kaf@@YA?AVarray@0@AEBEAEBV10@@Z
; class af::array __cdecl af::operator /(short const &__ptr64 ,class af::array const &__ptr64 )
??Kaf@@YA?AVarray@0@AEBFAEBV10@@Z
; class af::array __cdecl af::operator /(unsigned short const &__ptr64 ,class af::array const &__ptr64 )
??Kaf@@YA?AVarray@0@AEBGAEBV10@@Z
; class af::array __cdecl af::operator /(int const &__ptr64 ,class af::array const &__ptr64 )
??Kaf@@YA?AVarray@0@AEBHAEBV10@@Z
; class af::array __cdecl af::operator /(unsigned int const &__ptr64 ,class af::array const &__ptr64 )
??Kaf@@YA?AVarray@0@AEBIAEBV10@@Z
; class af::array __cdecl af::operator /(long const &__ptr64 ,class af::array const &__ptr64 )
??Kaf@@YA?AVarray@0@AEBJAEBV10@@Z
; class af::array __cdecl af::operator /(unsigned long const &__ptr64 ,class af::array const &__ptr64 )
??Kaf@@YA?AVarray@0@AEBKAEBV10@@Z
; class af::array __cdecl af::operator /(float const &__ptr64 ,class af::array const &__ptr64 )
??Kaf@@YA?AVarray@0@AEBMAEBV10@@Z
; class af::array __cdecl af::operator /(double const &__ptr64 ,class af::array const &__ptr64 )
??Kaf@@YA?AVarray@0@AEBNAEBV10@@Z
; class af::array __cdecl af::operator /(struct af::af_cdouble const &__ptr64 ,class af::array const &__ptr64 )
??Kaf@@YA?AVarray@0@AEBUaf_cdouble@0@AEBV10@@Z
; class af::array __cdecl af::operator /(struct af::af_cfloat const &__ptr64 ,class af::array const &__ptr64 )
??Kaf@@YA?AVarray@0@AEBUaf_cfloat@0@AEBV10@@Z
; class af::array __cdecl af::operator /(class af::array const &__ptr64 ,class af::array const &__ptr64 )
??Kaf@@YA?AVarray@0@AEBV10@0@Z
; class af::array __cdecl af::operator /(class af::array const &__ptr64 ,signed char const &__ptr64 )
??Kaf@@YA?AVarray@0@AEBV10@AEBC@Z
; class af::array __cdecl af::operator /(class af::array const &__ptr64 ,char const &__ptr64 )
??Kaf@@YA?AVarray@0@AEBV10@AEBD@Z
; class af::array __cdecl af::operator /(class af::array const &__ptr64 ,unsigned char const &__ptr64 )
??Kaf@@YA?AVarray@0@AEBV10@AEBE@Z
; class af::array __cdecl af::operator /(class af::array const &__ptr64 ,short const &__ptr64 )
??Kaf@@YA?AVarray@0@AEBV10@AEBF@Z
; class af::array __cdecl af::operator /(class af::array const &__ptr64 ,unsigned short const &__ptr64 )
??Kaf@@YA?AVarray@0@AEBV10@AEBG@Z
; class af::array __cdecl af::operator /(class af::array const &__ptr64 ,int const &__ptr64 )
??Kaf@@YA?AVarray@0@AEBV10@AEBH@Z
; class af::array __cdecl af::operator /(class af::array const &__ptr64 ,unsigned int const &__ptr64 )
??Kaf@@YA?AVarray@0@AEBV10@AEBI@Z
; class af::array __cdecl af::operator /(class af::array const &__ptr64 ,long const &__ptr64 )
??Kaf@@YA?AVarray@0@AEBV10@AEBJ@Z
; class af::array __cdecl af::operator /(class af::array const &__ptr64 ,unsigned long const &__ptr64 )
??Kaf@@YA?AVarray@0@AEBV10@AEBK@Z
; class af::array __cdecl af::operator /(class af::array const &__ptr64 ,float const &__ptr64 )
??Kaf@@YA?AVarray@0@AEBV10@AEBM@Z
; class af::array __cdecl af::operator /(class af::array const &__ptr64 ,double const &__ptr64 )
??Kaf@@YA?AVarray@0@AEBV10@AEBN@Z
; class af::array __cdecl af::operator /(class af::array const &__ptr64 ,struct af::af_cdouble const &__ptr64 )
??Kaf@@YA?AVarray@0@AEBV10@AEBUaf_cdouble@0@@Z
; class af::array __cdecl af::operator /(class af::array const &__ptr64 ,struct af::af_cfloat const &__ptr64 )
??Kaf@@YA?AVarray@0@AEBV10@AEBUaf_cfloat@0@@Z
; class af::array __cdecl af::operator /(class af::array const &__ptr64 ,__int64 const &__ptr64 )
??Kaf@@YA?AVarray@0@AEBV10@AEB_J@Z
; class af::array __cdecl af::operator /(class af::array const &__ptr64 ,unsigned __int64 const &__ptr64 )
??Kaf@@YA?AVarray@0@AEBV10@AEB_K@Z
; class af::array __cdecl af::operator /(class af::array const &__ptr64 ,bool const &__ptr64 )
??Kaf@@YA?AVarray@0@AEBV10@AEB_N@Z
; class af::array __cdecl af::operator /(__int64 const &__ptr64 ,class af::array const &__ptr64 )
??Kaf@@YA?AVarray@0@AEB_JAEBV10@@Z
; class af::array __cdecl af::operator /(unsigned __int64 const &__ptr64 ,class af::array const &__ptr64 )
??Kaf@@YA?AVarray@0@AEB_KAEBV10@@Z
; class af::array __cdecl af::operator /(bool const &__ptr64 ,class af::array const &__ptr64 )
??Kaf@@YA?AVarray@0@AEB_NAEBV10@@Z
; class af::array __cdecl af::operator %(signed char const &__ptr64 ,class af::array const &__ptr64 )
??Laf@@YA?AVarray@0@AEBCAEBV10@@Z
; class af::array __cdecl af::operator %(char const &__ptr64 ,class af::array const &__ptr64 )
??Laf@@YA?AVarray@0@AEBDAEBV10@@Z
; class af::array __cdecl af::operator %(unsigned char const &__ptr64 ,class af::array const &__ptr64 )
??Laf@@YA?AVarray@0@AEBEAEBV10@@Z
; class af::array __cdecl af::operator %(short const &__ptr64 ,class af::array const &__ptr64 )
??Laf@@YA?AVarray@0@AEBFAEBV10@@Z
; class af::array __cdecl af::operator %(unsigned short const &__ptr64 ,class af::array const &__ptr64 )
??Laf@@YA?AVarray@0@AEBGAEBV10@@Z
; class af::array __cdecl af::operator %(int const &__ptr64 ,class af::array const &__ptr64 )
??Laf@@YA?AVarray@0@AEBHAEBV10@@Z
; class af::array __cdecl af::operator %(unsigned int const &__ptr64 ,class af::array const &__ptr64 )
??Laf@@YA?AVarray@0@AEBIAEBV10@@Z
; class af::array __cdecl af::operator %(long const &__ptr64 ,class af::array const &__ptr64 )
??Laf@@YA?AVarray@0@AEBJAEBV10@@Z
; class af::array __cdecl af::operator %(unsigned long const &__ptr64 ,class af::array const &__ptr64 )
??Laf@@YA?AVarray@0@AEBKAEBV10@@Z
; class af::array __cdecl af::operator %(float const &__ptr64 ,class af::array const &__ptr64 )
??Laf@@YA?AVarray@0@AEBMAEBV10@@Z
; class af::array __cdecl af::operator %(double const &__ptr64 ,class af::array const &__ptr64 )
??Laf@@YA?AVarray@0@AEBNAEBV10@@Z
; class af::array __cdecl af::operator %(struct af::af_cdouble const &__ptr64 ,class af::array const &__ptr64 )
??Laf@@YA?AVarray@0@AEBUaf_cdouble@0@AEBV10@@Z
; class af::array __cdecl af::operator %(struct af::af_cfloat const &__ptr64 ,class af::array const &__ptr64 )
??Laf@@YA?AVarray@0@AEBUaf_cfloat@0@AEBV10@@Z
; class af::array __cdecl af::operator %(class af::array const &__ptr64 ,class af::array const &__ptr64 )
??Laf@@YA?AVarray@0@AEBV10@0@Z
; class af::array __cdecl af::operator %(class af::array const &__ptr64 ,signed char const &__ptr64 )
??Laf@@YA?AVarray@0@AEBV10@AEBC@Z
; class af::array __cdecl af::operator %(class af::array const &__ptr64 ,char const &__ptr64 )
??Laf@@YA?AVarray@0@AEBV10@AEBD@Z
; class af::array __cdecl af::operator %(class af::array const &__ptr64 ,unsigned char const &__ptr64 )
??Laf@@YA?AVarray@0@AEBV10@AEBE@Z
; class af::array __cdecl af::operator %(class af::array const &__ptr64 ,short const &__ptr64 )
??Laf@@YA?AVarray@0@AEBV10@AEBF@Z
; class af::array __cdecl af::operator %(class af::array const &__ptr64 ,unsigned short const &__ptr64 )
??Laf@@YA?AVarray@0@AEBV10@AEBG@Z
; class af::array __cdecl af::operator %(class af::array const &__ptr64 ,int const &__ptr64 )
??Laf@@YA?AVarray@0@AEBV10@AEBH@Z
; class af::array __cdecl af::operator %(class af::array const &__ptr64 ,unsigned int const &__ptr64 )
??Laf@@YA?AVarray@0@AEBV10@AEBI@Z
; class af::array __cdecl af::operator %(class af::array const &__ptr64 ,long const &__ptr64 )
??Laf@@YA?AVarray@0@AEBV10@AEBJ@Z
; class af::array __cdecl af::operator %(class af::array const &__ptr64 ,unsigned long const &__ptr64 )
??Laf@@YA?AVarray@0@AEBV10@AEBK@Z
; class af::array __cdecl af::operator %(class af::array const &__ptr64 ,float const &__ptr64 )
??Laf@@YA?AVarray@0@AEBV10@AEBM@Z
; class af::array __cdecl af::operator %(class af::array const &__ptr64 ,double const &__ptr64 )
??Laf@@YA?AVarray@0@AEBV10@AEBN@Z
; class af::array __cdecl af::operator %(class af::array const &__ptr64 ,struct af::af_cdouble const &__ptr64 )
??Laf@@YA?AVarray@0@AEBV10@AEBUaf_cdouble@0@@Z
; class af::array __cdecl af::operator %(class af::array const &__ptr64 ,struct af::af_cfloat const &__ptr64 )
??Laf@@YA?AVarray@0@AEBV10@AEBUaf_cfloat@0@@Z
; class af::array __cdecl af::operator %(class af::array const &__ptr64 ,__int64 const &__ptr64 )
??Laf@@YA?AVarray@0@AEBV10@AEB_J@Z
; class af::array __cdecl af::operator %(class af::array const &__ptr64 ,unsigned __int64 const &__ptr64 )
??Laf@@YA?AVarray@0@AEBV10@AEB_K@Z
; class af::array __cdecl af::operator %(class af::array const &__ptr64 ,bool const &__ptr64 )
??Laf@@YA?AVarray@0@AEBV10@AEB_N@Z
; class af::array __cdecl af::operator %(__int64 const &__ptr64 ,class af::array const &__ptr64 )
??Laf@@YA?AVarray@0@AEB_JAEBV10@@Z
; class af::array __cdecl af::operator %(unsigned __int64 const &__ptr64 ,class af::array const &__ptr64 )
??Laf@@YA?AVarray@0@AEB_KAEBV10@@Z
; class af::array __cdecl af::operator %(bool const &__ptr64 ,class af::array const &__ptr64 )
??Laf@@YA?AVarray@0@AEB_NAEBV10@@Z
; class af::array __cdecl af::operator <(signed char const &__ptr64 ,class af::array const &__ptr64 )
??Maf@@YA?AVarray@0@AEBCAEBV10@@Z
; class af::array __cdecl af::operator <(char const &__ptr64 ,class af::array const &__ptr64 )
??Maf@@YA?AVarray@0@AEBDAEBV10@@Z
; class af::array __cdecl af::operator <(unsigned char const &__ptr64 ,class af::array const &__ptr64 )
??Maf@@YA?AVarray@0@AEBEAEBV10@@Z
; class af::array __cdecl af::operator <(short const &__ptr64 ,class af::array const &__ptr64 )
??Maf@@YA?AVarray@0@AEBFAEBV10@@Z
; class af::array __cdecl af::operator <(unsigned short const &__ptr64 ,class af::array const &__ptr64 )
??Maf@@YA?AVarray@0@AEBGAEBV10@@Z
; class af::array __cdecl af::operator <(int const &__ptr64 ,class af::array const &__ptr64 )
??Maf@@YA?AVarray@0@AEBHAEBV10@@Z
; class af::array __cdecl af::operator <(unsigned int const &__ptr64 ,class af::array const &__ptr64 )
??Maf@@YA?AVarray@0@AEBIAEBV10@@Z
; class af::array __cdecl af::operator <(long const &__ptr64 ,class af::array const &__ptr64 )
??Maf@@YA?AVarray@0@AEBJAEBV10@@Z
; class af::array __cdecl af::operator <(unsigned long const &__ptr64 ,class af::array const &__ptr64 )
??Maf@@YA?AVarray@0@AEBKAEBV10@@Z
; class af::array __cdecl af::operator <(float const &__ptr64 ,class af::array const &__ptr64 )
??Maf@@YA?AVarray@0@AEBMAEBV10@@Z
; class af::array __cdecl af::operator <(double const &__ptr64 ,class af::array const &__ptr64 )
??Maf@@YA?AVarray@0@AEBNAEBV10@@Z
; class af::array __cdecl af::operator <(struct af::af_cdouble const &__ptr64 ,class af::array const &__ptr64 )
??Maf@@YA?AVarray@0@AEBUaf_cdouble@0@AEBV10@@Z
; class af::array __cdecl af::operator <(struct af::af_cfloat const &__ptr64 ,class af::array const &__ptr64 )
??Maf@@YA?AVarray@0@AEBUaf_cfloat@0@AEBV10@@Z
; class af::array __cdecl af::operator <(class af::array const &__ptr64 ,class af::array const &__ptr64 )
??Maf@@YA?AVarray@0@AEBV10@0@Z
; class af::array __cdecl af::operator <(class af::array const &__ptr64 ,signed char const &__ptr64 )
??Maf@@YA?AVarray@0@AEBV10@AEBC@Z
; class af::array __cdecl af::operator <(class af::array const &__ptr64 ,char const &__ptr64 )
??Maf@@YA?AVarray@0@AEBV10@AEBD@Z
; class af::array __cdecl af::operator <(class af::array const &__ptr64 ,unsigned char const &__ptr64 )
??Maf@@YA?AVarray@0@AEBV10@AEBE@Z
; class af::array __cdecl af::operator <(class af::array const &__ptr64 ,short const &__ptr64 )
??Maf@@YA?AVarray@0@AEBV10@AEBF@Z
; class af::array __cdecl af::operator <(class af::array const &__ptr64 ,unsigned short const &__ptr64 )
??Maf@@YA?AVarray@0@AEBV10@AEBG@Z
; class af::array __cdecl af::operator <(class af::array const &__ptr64 ,int const &__ptr64 )
??Maf@@YA?AVarray@0@AEBV10@AEBH@Z
; class af::array __cdecl af::operator <(class af::array const &__ptr64 ,unsigned int const &__ptr64 )
??Maf@@YA?AVarray@0@AEBV10@AEBI@Z
; class af::array __cdecl af::operator <(class af::array const &__ptr64 ,long const &__ptr64 )
??Maf@@YA?AVarray@0@AEBV10@AEBJ@Z
; class af::array __cdecl af::operator <(class af::array const &__ptr64 ,unsigned long const &__ptr64 )
??Maf@@YA?AVarray@0@AEBV10@AEBK@Z
; class af::array __cdecl af::operator <(class af::array const &__ptr64 ,float const &__ptr64 )
??Maf@@YA?AVarray@0@AEBV10@AEBM@Z
; class af::array __cdecl af::operator <(class af::array const &__ptr64 ,double const &__ptr64 )
??Maf@@YA?AVarray@0@AEBV10@AEBN@Z
; class af::array __cdecl af::operator <(class af::array const &__ptr64 ,struct af::af_cdouble const &__ptr64 )
??Maf@@YA?AVarray@0@AEBV10@AEBUaf_cdouble@0@@Z
; class af::array __cdecl af::operator <(class af::array const &__ptr64 ,struct af::af_cfloat const &__ptr64 )
??Maf@@YA?AVarray@0@AEBV10@AEBUaf_cfloat@0@@Z
; class af::array __cdecl af::operator <(class af::array const &__ptr64 ,__int64 const &__ptr64 )
??Maf@@YA?AVarray@0@AEBV10@AEB_J@Z
; class af::array __cdecl af::operator <(class af::array const &__ptr64 ,unsigned __int64 const &__ptr64 )
??Maf@@YA?AVarray@0@AEBV10@AEB_K@Z
; class af::array __cdecl af::operator <(class af::array const &__ptr64 ,bool const &__ptr64 )
??Maf@@YA?AVarray@0@AEBV10@AEB_N@Z
; class af::array __cdecl af::operator <(__int64 const &__ptr64 ,class af::array const &__ptr64 )
??Maf@@YA?AVarray@0@AEB_JAEBV10@@Z
; class af::array __cdecl af::operator <(unsigned __int64 const &__ptr64 ,class af::array const &__ptr64 )
??Maf@@YA?AVarray@0@AEB_KAEBV10@@Z
; class af::array __cdecl af::operator <(bool const &__ptr64 ,class af::array const &__ptr64 )
??Maf@@YA?AVarray@0@AEB_NAEBV10@@Z
; class af::array __cdecl af::operator <=(signed char const &__ptr64 ,class af::array const &__ptr64 )
??Naf@@YA?AVarray@0@AEBCAEBV10@@Z
; class af::array __cdecl af::operator <=(char const &__ptr64 ,class af::array const &__ptr64 )
??Naf@@YA?AVarray@0@AEBDAEBV10@@Z
; class af::array __cdecl af::operator <=(unsigned char const &__ptr64 ,class af::array const &__ptr64 )
??Naf@@YA?AVarray@0@AEBEAEBV10@@Z
; class af::array __cdecl af::operator <=(short const &__ptr64 ,class af::array const &__ptr64 )
??Naf@@YA?AVarray@0@AEBFAEBV10@@Z
; class af::array __cdecl af::operator <=(unsigned short const &__ptr64 ,class af::array const &__ptr64 )
??Naf@@YA?AVarray@0@AEBGAEBV10@@Z
; class af::array __cdecl af::operator <=(int const &__ptr64 ,class af::array const &__ptr64 )
??Naf@@YA?AVarray@0@AEBHAEBV10@@Z
; class af::array __cdecl af::operator <=(unsigned int const &__ptr64 ,class af::array const &__ptr64 )
??Naf@@YA?AVarray@0@AEBIAEBV10@@Z
; class af::array __cdecl af::operator <=(long const &__ptr64 ,class af::array const &__ptr64 )
??Naf@@YA?AVarray@0@AEBJAEBV10@@Z
; class af::array __cdecl af::operator <=(unsigned long const &__ptr64 ,class af::array const &__ptr64 )
??Naf@@YA?AVarray@0@AEBKAEBV10@@Z
; class af::array __cdecl af::operator <=(float const &__ptr64 ,class af::array const &__ptr64 )
??Naf@@YA?AVarray@0@AEBMAEBV10@@Z
; class af::array __cdecl af::operator <=(double const &__ptr64 ,class af::array const &__ptr64 )
??Naf@@YA?AVarray@0@AEBNAEBV10@@Z
; class af::array __cdecl af::operator <=(struct af::af_cdouble const &__ptr64 ,class af::array const &__ptr64 )
??Naf@@YA?AVarray@0@AEBUaf_cdouble@0@AEBV10@@Z
; class af::array __cdecl af::operator <=(struct af::af_cfloat const &__ptr64 ,class af::array const &__ptr64 )
??Naf@@YA?AVarray@0@AEBUaf_cfloat@0@AEBV10@@Z
; class af::array __cdecl af::operator <=(class af::array const &__ptr64 ,class af::array const &__ptr64 )
??Naf@@YA?AVarray@0@AEBV10@0@Z
; class af::array __cdecl af::operator <=(class af::array const &__ptr64 ,signed char const &__ptr64 )
??Naf@@YA?AVarray@0@AEBV10@AEBC@Z
; class af::array __cdecl af::operator <=(class af::array const &__ptr64 ,char const &__ptr64 )
??Naf@@YA?AVarray@0@AEBV10@AEBD@Z
; class af::array __cdecl af::operator <=(class af::array const &__ptr64 ,unsigned char const &__ptr64 )
??Naf@@YA?AVarray@0@AEBV10@AEBE@Z
; class af::array __cdecl af::operator <=(class af::array const &__ptr64 ,short const &__ptr64 )
??Naf@@YA?AVarray@0@AEBV10@AEBF@Z
; class af::array __cdecl af::operator <=(class af::array const &__ptr64 ,unsigned short const &__ptr64 )
??Naf@@YA?AVarray@0@AEBV10@AEBG@Z
; class af::array __cdecl af::operator <=(class af::array const &__ptr64 ,int const &__ptr64 )
??Naf@@YA?AVarray@0@AEBV10@AEBH@Z
; class af::array __cdecl af::operator <=(class af::array const &__ptr64 ,unsigned int const &__ptr64 )
??Naf@@YA?AVarray@0@AEBV10@AEBI@Z
; class af::array __cdecl af::operator <=(class af::array const &__ptr64 ,long const &__ptr64 )
??Naf@@YA?AVarray@0@AEBV10@AEBJ@Z
; class af::array __cdecl af::operator <=(class af::array const &__ptr64 ,unsigned long const &__ptr64 )
??Naf@@YA?AVarray@0@AEBV10@AEBK@Z
; class af::array __cdecl af::operator <=(class af::array const &__ptr64 ,float const &__ptr64 )
??Naf@@YA?AVarray@0@AEBV10@AEBM@Z
; class af::array __cdecl af::operator <=(class af::array const &__ptr64 ,double const &__ptr64 )
??Naf@@YA?AVarray@0@AEBV10@AEBN@Z
; class af::array __cdecl af::operator <=(class af::array const &__ptr64 ,struct af::af_cdouble const &__ptr64 )
??Naf@@YA?AVarray@0@AEBV10@AEBUaf_cdouble@0@@Z
; class af::array __cdecl af::operator <=(class af::array const &__ptr64 ,struct af::af_cfloat const &__ptr64 )
??Naf@@YA?AVarray@0@AEBV10@AEBUaf_cfloat@0@@Z
; class af::array __cdecl af::operator <=(class af::array const &__ptr64 ,__int64 const &__ptr64 )
??Naf@@YA?AVarray@0@AEBV10@AEB_J@Z
; class af::array __cdecl af::operator <=(class af::array const &__ptr64 ,unsigned __int64 const &__ptr64 )
??Naf@@YA?AVarray@0@AEBV10@AEB_K@Z
; class af::array __cdecl af::operator <=(class af::array const &__ptr64 ,bool const &__ptr64 )
??Naf@@YA?AVarray@0@AEBV10@AEB_N@Z
; class af::array __cdecl af::operator <=(__int64 const &__ptr64 ,class af::array const &__ptr64 )
??Naf@@YA?AVarray@0@AEB_JAEBV10@@Z
; class af::array __cdecl af::operator <=(unsigned __int64 const &__ptr64 ,class af::array const &__ptr64 )
??Naf@@YA?AVarray@0@AEB_KAEBV10@@Z
; class af::array __cdecl af::operator <=(bool const &__ptr64 ,class af::array const &__ptr64 )
??Naf@@YA?AVarray@0@AEB_NAEBV10@@Z
; class af::array __cdecl af::operator >(signed char const &__ptr64 ,class af::array const &__ptr64 )
??Oaf@@YA?AVarray@0@AEBCAEBV10@@Z
; class af::array __cdecl af::operator >(char const &__ptr64 ,class af::array const &__ptr64 )
??Oaf@@YA?AVarray@0@AEBDAEBV10@@Z
; class af::array __cdecl af::operator >(unsigned char const &__ptr64 ,class af::array const &__ptr64 )
??Oaf@@YA?AVarray@0@AEBEAEBV10@@Z
; class af::array __cdecl af::operator >(short const &__ptr64 ,class af::array const &__ptr64 )
??Oaf@@YA?AVarray@0@AEBFAEBV10@@Z
; class af::array __cdecl af::operator >(unsigned short const &__ptr64 ,class af::array const &__ptr64 )
??Oaf@@YA?AVarray@0@AEBGAEBV10@@Z
; class af::array __cdecl af::operator >(int const &__ptr64 ,class af::array const &__ptr64 )
??Oaf@@YA?AVarray@0@AEBHAEBV10@@Z
; class af::array __cdecl af::operator >(unsigned int const &__ptr64 ,class af::array const &__ptr64 )
??Oaf@@YA?AVarray@0@AEBIAEBV10@@Z
; class af::array __cdecl af::operator >(long const &__ptr64 ,class af::array const &__ptr64 )
??Oaf@@YA?AVarray@0@AEBJAEBV10@@Z
; class af::array __cdecl af::operator >(unsigned long const &__ptr64 ,class af::array const &__ptr64 )
??Oaf@@YA?AVarray@0@AEBKAEBV10@@Z
; class af::array __cdecl af::operator >(float const &__ptr64 ,class af::array const &__ptr64 )
??Oaf@@YA?AVarray@0@AEBMAEBV10@@Z
; class af::array __cdecl af::operator >(double const &__ptr64 ,class af::array const &__ptr64 )
??Oaf@@YA?AVarray@0@AEBNAEBV10@@Z
; class af::array __cdecl af::operator >(struct af::af_cdouble const &__ptr64 ,class af::array const &__ptr64 )
??Oaf@@YA?AVarray@0@AEBUaf_cdouble@0@AEBV10@@Z
; class af::array __cdecl af::operator >(struct af::af_cfloat const &__ptr64 ,class af::array const &__ptr64 )
??Oaf@@YA?AVarray@0@AEBUaf_cfloat@0@AEBV10@@Z
; class af::array __cdecl af::operator >(class af::array const &__ptr64 ,class af::array const &__ptr64 )
??Oaf@@YA?AVarray@0@AEBV10@0@Z
; class af::array __cdecl af::operator >(class af::array const &__ptr64 ,signed char const &__ptr64 )
??Oaf@@YA?AVarray@0@AEBV10@AEBC@Z
; class af::array __cdecl af::operator >(class af::array const &__ptr64 ,char const &__ptr64 )
??Oaf@@YA?AVarray@0@AEBV10@AEBD@Z
; class af::array __cdecl af::operator >(class af::array const &__ptr64 ,unsigned char const &__ptr64 )
??Oaf@@YA?AVarray@0@AEBV10@AEBE@Z
; class af::array __cdecl af::operator >(class af::array const &__ptr64 ,short const &__ptr64 )
??Oaf@@YA?AVarray@0@AEBV10@AEBF@Z
; class af::array __cdecl af::operator >(class af::array const &__ptr64 ,unsigned short const &__ptr64 )
??Oaf@@YA?AVarray@0@AEBV10@AEBG@Z
; class af::array __cdecl af::operator >(class af::array const &__ptr64 ,int const &__ptr64 )
??Oaf@@YA?AVarray@0@AEBV10@AEBH@Z
; class af::array __cdecl af::operator >(class af::array const &__ptr64 ,unsigned int const &__ptr64 )
??Oaf@@YA?AVarray@0@AEBV10@AEBI@Z
; class af::array __cdecl af::operator >(class af::array const &__ptr64 ,long const &__ptr64 )
??Oaf@@YA?AVarray@0@AEBV10@AEBJ@Z
; class af::array __cdecl af::operator >(class af::array const &__ptr64 ,unsigned long const &__ptr64 )
??Oaf@@YA?AVarray@0@AEBV10@AEBK@Z
; class af::array __cdecl af::operator >(class af::array const &__ptr64 ,float const &__ptr64 )
??Oaf@@YA?AVarray@0@AEBV10@AEBM@Z
; class af::array __cdecl af::operator >(class af::array const &__ptr64 ,double const &__ptr64 )
??Oaf@@YA?AVarray@0@AEBV10@AEBN@Z
; class af::array __cdecl af::operator >(class af::array const &__ptr64 ,struct af::af_cdouble const &__ptr64 )
??Oaf@@YA?AVarray@0@AEBV10@AEBUaf_cdouble@0@@Z
; class af::array __cdecl af::operator >(class af::array const &__ptr64 ,struct af::af_cfloat const &__ptr64 )
??Oaf@@YA?AVarray@0@AEBV10@AEBUaf_cfloat@0@@Z
; class af::array __cdecl af::operator >(class af::array const &__ptr64 ,__int64 const &__ptr64 )
??Oaf@@YA?AVarray@0@AEBV10@AEB_J@Z
; class af::array __cdecl af::operator >(class af::array const &__ptr64 ,unsigned __int64 const &__ptr64 )
??Oaf@@YA?AVarray@0@AEBV10@AEB_K@Z
; class af::array __cdecl af::operator >(class af::array const &__ptr64 ,bool const &__ptr64 )
??Oaf@@YA?AVarray@0@AEBV10@AEB_N@Z
; class af::array __cdecl af::operator >(__int64 const &__ptr64 ,class af::array const &__ptr64 )
??Oaf@@YA?AVarray@0@AEB_JAEBV10@@Z
; class af::array __cdecl af::operator >(unsigned __int64 const &__ptr64 ,class af::array const &__ptr64 )
??Oaf@@YA?AVarray@0@AEB_KAEBV10@@Z
; class af::array __cdecl af::operator >(bool const &__ptr64 ,class af::array const &__ptr64 )
??Oaf@@YA?AVarray@0@AEB_NAEBV10@@Z
; class af::array __cdecl af::operator >=(signed char const &__ptr64 ,class af::array const &__ptr64 )
??Paf@@YA?AVarray@0@AEBCAEBV10@@Z
; class af::array __cdecl af::operator >=(char const &__ptr64 ,class af::array const &__ptr64 )
??Paf@@YA?AVarray@0@AEBDAEBV10@@Z
; class af::array __cdecl af::operator >=(unsigned char const &__ptr64 ,class af::array const &__ptr64 )
??Paf@@YA?AVarray@0@AEBEAEBV10@@Z
; class af::array __cdecl af::operator >=(short const &__ptr64 ,class af::array const &__ptr64 )
??Paf@@YA?AVarray@0@AEBFAEBV10@@Z
; class af::array __cdecl af::operator >=(unsigned short const &__ptr64 ,class af::array const &__ptr64 )
??Paf@@YA?AVarray@0@AEBGAEBV10@@Z
; class af::array __cdecl af::operator >=(int const &__ptr64 ,class af::array const &__ptr64 )
??Paf@@YA?AVarray@0@AEBHAEBV10@@Z
; class af::array __cdecl af::operator >=(unsigned int const &__ptr64 ,class af::array const &__ptr64 )
??Paf@@YA?AVarray@0@AEBIAEBV10@@Z
; class af::array __cdecl af::operator >=(long const &__ptr64 ,class af::array const &__ptr64 )
??Paf@@YA?AVarray@0@AEBJAEBV10@@Z
; class af::array __cdecl af::operator >=(unsigned long const &__ptr64 ,class af::array const &__ptr64 )
??Paf@@YA?AVarray@0@AEBKAEBV10@@Z
; class af::array __cdecl af::operator >=(float const &__ptr64 ,class af::array const &__ptr64 )
??Paf@@YA?AVarray@0@AEBMAEBV10@@Z
; class af::array __cdecl af::operator >=(double const &__ptr64 ,class af::array const &__ptr64 )
??Paf@@YA?AVarray@0@AEBNAEBV10@@Z
; class af::array __cdecl af::operator >=(struct af::af_cdouble const &__ptr64 ,class af::array const &__ptr64 )
??Paf@@YA?AVarray@0@AEBUaf_cdouble@0@AEBV10@@Z
; class af::array __cdecl af::operator >=(struct af::af_cfloat const &__ptr64 ,class af::array const &__ptr64 )
??Paf@@YA?AVarray@0@AEBUaf_cfloat@0@AEBV10@@Z
; class af::array __cdecl af::operator >=(class af::array const &__ptr64 ,class af::array const &__ptr64 )
??Paf@@YA?AVarray@0@AEBV10@0@Z
; class af::array __cdecl af::operator >=(class af::array const &__ptr64 ,signed char const &__ptr64 )
??Paf@@YA?AVarray@0@AEBV10@AEBC@Z
; class af::array __cdecl af::operator >=(class af::array const &__ptr64 ,char const &__ptr64 )
??Paf@@YA?AVarray@0@AEBV10@AEBD@Z
; class af::array __cdecl af::operator >=(class af::array const &__ptr64 ,unsigned char const &__ptr64 )
??Paf@@YA?AVarray@0@AEBV10@AEBE@Z
; class af::array __cdecl af::operator >=(class af::array const &__ptr64 ,short const &__ptr64 )
??Paf@@YA?AVarray@0@AEBV10@AEBF@Z
; class af::array __cdecl af::operator >=(class af::array const &__ptr64 ,unsigned short const &__ptr64 )
??Paf@@YA?AVarray@0@AEBV10@AEBG@Z
; class af::array __cdecl af::operator >=(class af::array const &__ptr64 ,int const &__ptr64 )
??Paf@@YA?AVarray@0@AEBV10@AEBH@Z
; class af::array __cdecl af::operator >=(class af::array const &__ptr64 ,unsigned int const &__ptr64 )
??Paf@@YA?AVarray@0@AEBV10@AEBI@Z
; class af::array __cdecl af::operator >=(class af::array const &__ptr64 ,long const &__ptr64 )
??Paf@@YA?AVarray@0@AEBV10@AEBJ@Z
; class af::array __cdecl af::operator >=(class af::array const &__ptr64 ,unsigned long const &__ptr64 )
??Paf@@YA?AVarray@0@AEBV10@AEBK@Z
; class af::array __cdecl af::operator >=(class af::array const &__ptr64 ,float const &__ptr64 )
??Paf@@YA?AVarray@0@AEBV10@AEBM@Z
; class af::array __cdecl af::operator >=(class af::array const &__ptr64 ,double const &__ptr64 )
??Paf@@YA?AVarray@0@AEBV10@AEBN@Z
; class af::array __cdecl af::operator >=(class af::array const &__ptr64 ,struct af::af_cdouble const &__ptr64 )
??Paf@@YA?AVarray@0@AEBV10@AEBUaf_cdouble@0@@Z
; class af::array __cdecl af::operator >=(class af::array const &__ptr64 ,struct af::af_cfloat const &__ptr64 )
??Paf@@YA?AVarray@0@AEBV10@AEBUaf_cfloat@0@@Z
; class af::array __cdecl af::operator >=(class af::array const &__ptr64 ,__int64 const &__ptr64 )
??Paf@@YA?AVarray@0@AEBV10@AEB_J@Z
; class af::array __cdecl af::operator >=(class af::array const &__ptr64 ,unsigned __int64 const &__ptr64 )
??Paf@@YA?AVarray@0@AEBV10@AEB_K@Z
; class af::array __cdecl af::operator >=(class af::array const &__ptr64 ,bool const &__ptr64 )
??Paf@@YA?AVarray@0@AEBV10@AEB_N@Z
; class af::array __cdecl af::operator >=(__int64 const &__ptr64 ,class af::array const &__ptr64 )
??Paf@@YA?AVarray@0@AEB_JAEBV10@@Z
; class af::array __cdecl af::operator >=(unsigned __int64 const &__ptr64 ,class af::array const &__ptr64 )
??Paf@@YA?AVarray@0@AEB_KAEBV10@@Z
; class af::array __cdecl af::operator >=(bool const &__ptr64 ,class af::array const &__ptr64 )
??Paf@@YA?AVarray@0@AEB_NAEBV10@@Z
; public: class af::Window &__ptr64 __cdecl af::Window::operator()(int,int)__ptr64 
??RWindow@af@@QEAAAEAV01@HH@Z
; public: class af::array::array_proxy __cdecl af::array::operator()(class af::index const &__ptr64 ,class af::index const &__ptr64 ,class af::index const &__ptr64 ,class af::index const &__ptr64 )__ptr64 
??Rarray@af@@QEAA?AVarray_proxy@01@AEBVindex@1@000@Z
; public: class af::array::array_proxy __cdecl af::array::operator()(class af::index const &__ptr64 )__ptr64 
??Rarray@af@@QEAA?AVarray_proxy@01@AEBVindex@1@@Z
; public: class af::array::array_proxy const __cdecl af::array::operator()(class af::index const &__ptr64 ,class af::index const &__ptr64 ,class af::index const &__ptr64 ,class af::index const &__ptr64 )const __ptr64 
??Rarray@af@@QEBA?BVarray_proxy@01@AEBVindex@1@000@Z
; public: class af::array::array_proxy const __cdecl af::array::operator()(class af::index const &__ptr64 )const __ptr64 
??Rarray@af@@QEBA?BVarray_proxy@01@AEBVindex@1@@Z
; public: class af::array __cdecl af::array::operator ~(void)const __ptr64 
??Sarray@af@@QEBA?AV01@XZ
; class af::array __cdecl af::operator ^(signed char const &__ptr64 ,class af::array const &__ptr64 )
??Taf@@YA?AVarray@0@AEBCAEBV10@@Z
; class af::array __cdecl af::operator ^(char const &__ptr64 ,class af::array const &__ptr64 )
??Taf@@YA?AVarray@0@AEBDAEBV10@@Z
; class af::array __cdecl af::operator ^(unsigned char const &__ptr64 ,class af::array const &__ptr64 )
??Taf@@YA?AVarray@0@AEBEAEBV10@@Z
; class af::array __cdecl af::operator ^(short const &__ptr64 ,class af::array const &__ptr64 )
??Taf@@YA?AVarray@0@AEBFAEBV10@@Z
; class af::array __cdecl af::operator ^(unsigned short const &__ptr64 ,class af::array const &__ptr64 )
??Taf@@YA?AVarray@0@AEBGAEBV10@@Z
; class af::array __cdecl af::operator ^(int const &__ptr64 ,class af::array const &__ptr64 )
??Taf@@YA?AVarray@0@AEBHAEBV10@@Z
; class af::array __cdecl af::operator ^(unsigned int const &__ptr64 ,class af::array const &__ptr64 )
??Taf@@YA?AVarray@0@AEBIAEBV10@@Z
; class af::array __cdecl af::operator ^(long const &__ptr64 ,class af::array const &__ptr64 )
??Taf@@YA?AVarray@0@AEBJAEBV10@@Z
; class af::array __cdecl af::operator ^(unsigned long const &__ptr64 ,class af::array const &__ptr64 )
??Taf@@YA?AVarray@0@AEBKAEBV10@@Z
; class af::array __cdecl af::operator ^(float const &__ptr64 ,class af::array const &__ptr64 )
??Taf@@YA?AVarray@0@AEBMAEBV10@@Z
; class af::array __cdecl af::operator ^(double const &__ptr64 ,class af::array const &__ptr64 )
??Taf@@YA?AVarray@0@AEBNAEBV10@@Z
; class af::array __cdecl af::operator ^(struct af::af_cdouble const &__ptr64 ,class af::array const &__ptr64 )
??Taf@@YA?AVarray@0@AEBUaf_cdouble@0@AEBV10@@Z
; class af::array __cdecl af::operator ^(struct af::af_cfloat const &__ptr64 ,class af::array const &__ptr64 )
??Taf@@YA?AVarray@0@AEBUaf_cfloat@0@AEBV10@@Z
; class af::array __cdecl af::operator ^(class af::array const &__ptr64 ,class af::array const &__ptr64 )
??Taf@@YA?AVarray@0@AEBV10@0@Z
; class af::array __cdecl af::operator ^(class af::array const &__ptr64 ,signed char const &__ptr64 )
??Taf@@YA?AVarray@0@AEBV10@AEBC@Z
; class af::array __cdecl af::operator ^(class af::array const &__ptr64 ,char const &__ptr64 )
??Taf@@YA?AVarray@0@AEBV10@AEBD@Z
; class af::array __cdecl af::operator ^(class af::array const &__ptr64 ,unsigned char const &__ptr64 )
??Taf@@YA?AVarray@0@AEBV10@AEBE@Z
; class af::array __cdecl af::operator ^(class af::array const &__ptr64 ,short const &__ptr64 )
??Taf@@YA?AVarray@0@AEBV10@AEBF@Z
; class af::array __cdecl af::operator ^(class af::array const &__ptr64 ,unsigned short const &__ptr64 )
??Taf@@YA?AVarray@0@AEBV10@AEBG@Z
; class af::array __cdecl af::operator ^(class af::array const &__ptr64 ,int const &__ptr64 )
??Taf@@YA?AVarray@0@AEBV10@AEBH@Z
; class af::array __cdecl af::operator ^(class af::array const &__ptr64 ,unsigned int const &__ptr64 )
??Taf@@YA?AVarray@0@AEBV10@AEBI@Z
; class af::array __cdecl af::operator ^(class af::array const &__ptr64 ,long const &__ptr64 )
??Taf@@YA?AVarray@0@AEBV10@AEBJ@Z
; class af::array __cdecl af::operator ^(class af::array const &__ptr64 ,unsigned long const &__ptr64 )
??Taf@@YA?AVarray@0@AEBV10@AEBK@Z
; class af::array __cdecl af::operator ^(class af::array const &__ptr64 ,float const &__ptr64 )
??Taf@@YA?AVarray@0@AEBV10@AEBM@Z
; class af::array __cdecl af::operator ^(class af::array const &__ptr64 ,double const &__ptr64 )
??Taf@@YA?AVarray@0@AEBV10@AEBN@Z
; class af::array __cdecl af::operator ^(class af::array const &__ptr64 ,struct af::af_cdouble const &__ptr64 )
??Taf@@YA?AVarray@0@AEBV10@AEBUaf_cdouble@0@@Z
; class af::array __cdecl af::operator ^(class af::array const &__ptr64 ,struct af::af_cfloat const &__ptr64 )
??Taf@@YA?AVarray@0@AEBV10@AEBUaf_cfloat@0@@Z
; class af::array __cdecl af::operator ^(class af::array const &__ptr64 ,__int64 const &__ptr64 )
??Taf@@YA?AVarray@0@AEBV10@AEB_J@Z
; class af::array __cdecl af::operator ^(class af::array const &__ptr64 ,unsigned __int64 const &__ptr64 )
??Taf@@YA?AVarray@0@AEBV10@AEB_K@Z
; class af::array __cdecl af::operator ^(class af::array const &__ptr64 ,bool const &__ptr64 )
??Taf@@YA?AVarray@0@AEBV10@AEB_N@Z
; class af::array __cdecl af::operator ^(__int64 const &__ptr64 ,class af::array const &__ptr64 )
??Taf@@YA?AVarray@0@AEB_JAEBV10@@Z
; class af::array __cdecl af::operator ^(unsigned __int64 const &__ptr64 ,class af::array const &__ptr64 )
??Taf@@YA?AVarray@0@AEB_KAEBV10@@Z
; class af::array __cdecl af::operator ^(bool const &__ptr64 ,class af::array const &__ptr64 )
??Taf@@YA?AVarray@0@AEB_NAEBV10@@Z
; class af::array __cdecl af::operator |(signed char const &__ptr64 ,class af::array const &__ptr64 )
??Uaf@@YA?AVarray@0@AEBCAEBV10@@Z
; class af::array __cdecl af::operator |(char const &__ptr64 ,class af::array const &__ptr64 )
??Uaf@@YA?AVarray@0@AEBDAEBV10@@Z
; class af::array __cdecl af::operator |(unsigned char const &__ptr64 ,class af::array const &__ptr64 )
??Uaf@@YA?AVarray@0@AEBEAEBV10@@Z
; class af::array __cdecl af::operator |(short const &__ptr64 ,class af::array const &__ptr64 )
??Uaf@@YA?AVarray@0@AEBFAEBV10@@Z
; class af::array __cdecl af::operator |(unsigned short const &__ptr64 ,class af::array const &__ptr64 )
??Uaf@@YA?AVarray@0@AEBGAEBV10@@Z
; class af::array __cdecl af::operator |(int const &__ptr64 ,class af::array const &__ptr64 )
??Uaf@@YA?AVarray@0@AEBHAEBV10@@Z
; class af::array __cdecl af::operator |(unsigned int const &__ptr64 ,class af::array const &__ptr64 )
??Uaf@@YA?AVarray@0@AEBIAEBV10@@Z
; class af::array __cdecl af::operator |(long const &__ptr64 ,class af::array const &__ptr64 )
??Uaf@@YA?AVarray@0@AEBJAEBV10@@Z
; class af::array __cdecl af::operator |(unsigned long const &__ptr64 ,class af::array const &__ptr64 )
??Uaf@@YA?AVarray@0@AEBKAEBV10@@Z
; class af::array __cdecl af::operator |(float const &__ptr64 ,class af::array const &__ptr64 )
??Uaf@@YA?AVarray@0@AEBMAEBV10@@Z
; class af::array __cdecl af::operator |(double const &__ptr64 ,class af::array const &__ptr64 )
??Uaf@@YA?AVarray@0@AEBNAEBV10@@Z
; class af::array __cdecl af::operator |(struct af::af_cdouble const &__ptr64 ,class af::array const &__ptr64 )
??Uaf@@YA?AVarray@0@AEBUaf_cdouble@0@AEBV10@@Z
; class af::array __cdecl af::operator |(struct af::af_cfloat const &__ptr64 ,class af::array const &__ptr64 )
??Uaf@@YA?AVarray@0@AEBUaf_cfloat@0@AEBV10@@Z
; class af::array __cdecl af::operator |(class af::array const &__ptr64 ,class af::array const &__ptr64 )
??Uaf@@YA?AVarray@0@AEBV10@0@Z
; class af::array __cdecl af::operator |(class af::array const &__ptr64 ,signed char const &__ptr64 )
??Uaf@@YA?AVarray@0@AEBV10@AEBC@Z
; class af::array __cdecl af::operator |(class af::array const &__ptr64 ,char const &__ptr64 )
??Uaf@@YA?AVarray@0@AEBV10@AEBD@Z
; class af::array __cdecl af::operator |(class af::array const &__ptr64 ,unsigned char const &__ptr64 )
??Uaf@@YA?AVarray@0@AEBV10@AEBE@Z
; class af::array __cdecl af::operator |(class af::array const &__ptr64 ,short const &__ptr64 )
??Uaf@@YA?AVarray@0@AEBV10@AEBF@Z
; class af::array __cdecl af::operator |(class af::array const &__ptr64 ,unsigned short const &__ptr64 )
??Uaf@@YA?AVarray@0@AEBV10@AEBG@Z
; class af::array __cdecl af::operator |(class af::array const &__ptr64 ,int const &__ptr64 )
??Uaf@@YA?AVarray@0@AEBV10@AEBH@Z
; class af::array __cdecl af::operator |(class af::array const &__ptr64 ,unsigned int const &__ptr64 )
??Uaf@@YA?AVarray@0@AEBV10@AEBI@Z
; class af::array __cdecl af::operator |(class af::array const &__ptr64 ,long const &__ptr64 )
??Uaf@@YA?AVarray@0@AEBV10@AEBJ@Z
; class af::array __cdecl af::operator |(class af::array const &__ptr64 ,unsigned long const &__ptr64 )
??Uaf@@YA?AVarray@0@AEBV10@AEBK@Z
; class af::array __cdecl af::operator |(class af::array const &__ptr64 ,float const &__ptr64 )
??Uaf@@YA?AVarray@0@AEBV10@AEBM@Z
; class af::array __cdecl af::operator |(class af::array const &__ptr64 ,double const &__ptr64 )
??Uaf@@YA?AVarray@0@AEBV10@AEBN@Z
; class af::array __cdecl af::operator |(class af::array const &__ptr64 ,struct af::af_cdouble const &__ptr64 )
??Uaf@@YA?AVarray@0@AEBV10@AEBUaf_cdouble@0@@Z
; class af::array __cdecl af::operator |(class af::array const &__ptr64 ,struct af::af_cfloat const &__ptr64 )
??Uaf@@YA?AVarray@0@AEBV10@AEBUaf_cfloat@0@@Z
; class af::array __cdecl af::operator |(class af::array const &__ptr64 ,__int64 const &__ptr64 )
??Uaf@@YA?AVarray@0@AEBV10@AEB_J@Z
; class af::array __cdecl af::operator |(class af::array const &__ptr64 ,unsigned __int64 const &__ptr64 )
??Uaf@@YA?AVarray@0@AEBV10@AEB_K@Z
; class af::array __cdecl af::operator |(class af::array const &__ptr64 ,bool const &__ptr64 )
??Uaf@@YA?AVarray@0@AEBV10@AEB_N@Z
; class af::array __cdecl af::operator |(__int64 const &__ptr64 ,class af::array const &__ptr64 )
??Uaf@@YA?AVarray@0@AEB_JAEBV10@@Z
; class af::array __cdecl af::operator |(unsigned __int64 const &__ptr64 ,class af::array const &__ptr64 )
??Uaf@@YA?AVarray@0@AEB_KAEBV10@@Z
; class af::array __cdecl af::operator |(bool const &__ptr64 ,class af::array const &__ptr64 )
??Uaf@@YA?AVarray@0@AEB_NAEBV10@@Z
; class af::array __cdecl af::operator &&(signed char const &__ptr64 ,class af::array const &__ptr64 )
??Vaf@@YA?AVarray@0@AEBCAEBV10@@Z
; class af::array __cdecl af::operator &&(char const &__ptr64 ,class af::array const &__ptr64 )
??Vaf@@YA?AVarray@0@AEBDAEBV10@@Z
; class af::array __cdecl af::operator &&(unsigned char const &__ptr64 ,class af::array const &__ptr64 )
??Vaf@@YA?AVarray@0@AEBEAEBV10@@Z
; class af::array __cdecl af::operator &&(short const &__ptr64 ,class af::array const &__ptr64 )
??Vaf@@YA?AVarray@0@AEBFAEBV10@@Z
; class af::array __cdecl af::operator &&(unsigned short const &__ptr64 ,class af::array const &__ptr64 )
??Vaf@@YA?AVarray@0@AEBGAEBV10@@Z
; class af::array __cdecl af::operator &&(int const &__ptr64 ,class af::array const &__ptr64 )
??Vaf@@YA?AVarray@0@AEBHAEBV10@@Z
; class af::array __cdecl af::operator &&(unsigned int const &__ptr64 ,class af::array const &__ptr64 )
??Vaf@@YA?AVarray@0@AEBIAEBV10@@Z
; class af::array __cdecl af::operator &&(long const &__ptr64 ,class af::array const &__ptr64 )
??Vaf@@YA?AVarray@0@AEBJAEBV10@@Z
; class af::array __cdecl af::operator &&(unsigned long const &__ptr64 ,class af::array const &__ptr64 )
??Vaf@@YA?AVarray@0@AEBKAEBV10@@Z
; class af::array __cdecl af::operator &&(float const &__ptr64 ,class af::array const &__ptr64 )
??Vaf@@YA?AVarray@0@AEBMAEBV10@@Z
; class af::array __cdecl af::operator &&(double const &__ptr64 ,class af::array const &__ptr64 )
??Vaf@@YA?AVarray@0@AEBNAEBV10@@Z
; class af::array __cdecl af::operator &&(struct af::af_cdouble const &__ptr64 ,class af::array const &__ptr64 )
??Vaf@@YA?AVarray@0@AEBUaf_cdouble@0@AEBV10@@Z
; class af::array __cdecl af::operator &&(struct af::af_cfloat const &__ptr64 ,class af::array const &__ptr64 )
??Vaf@@YA?AVarray@0@AEBUaf_cfloat@0@AEBV10@@Z
; class af::array __cdecl af::operator &&(class af::array const &__ptr64 ,class af::array const &__ptr64 )
??Vaf@@YA?AVarray@0@AEBV10@0@Z
; class af::array __cdecl af::operator &&(class af::array const &__ptr64 ,signed char const &__ptr64 )
??Vaf@@YA?AVarray@0@AEBV10@AEBC@Z
; class af::array __cdecl af::operator &&(class af::array const &__ptr64 ,char const &__ptr64 )
??Vaf@@YA?AVarray@0@AEBV10@AEBD@Z
; class af::array __cdecl af::operator &&(class af::array const &__ptr64 ,unsigned char const &__ptr64 )
??Vaf@@YA?AVarray@0@AEBV10@AEBE@Z
; class af::array __cdecl af::operator &&(class af::array const &__ptr64 ,short const &__ptr64 )
??Vaf@@YA?AVarray@0@AEBV10@AEBF@Z
; class af::array __cdecl af::operator &&(class af::array const &__ptr64 ,unsigned short const &__ptr64 )
??Vaf@@YA?AVarray@0@AEBV10@AEBG@Z
; class af::array __cdecl af::operator &&(class af::array const &__ptr64 ,int const &__ptr64 )
??Vaf@@YA?AVarray@0@AEBV10@AEBH@Z
; class af::array __cdecl af::operator &&(class af::array const &__ptr64 ,unsigned int const &__ptr64 )
??Vaf@@YA?AVarray@0@AEBV10@AEBI@Z
; class af::array __cdecl af::operator &&(class af::array const &__ptr64 ,long const &__ptr64 )
??Vaf@@YA?AVarray@0@AEBV10@AEBJ@Z
; class af::array __cdecl af::operator &&(class af::array const &__ptr64 ,unsigned long const &__ptr64 )
??Vaf@@YA?AVarray@0@AEBV10@AEBK@Z
; class af::array __cdecl af::operator &&(class af::array const &__ptr64 ,float const &__ptr64 )
??Vaf@@YA?AVarray@0@AEBV10@AEBM@Z
; class af::array __cdecl af::operator &&(class af::array const &__ptr64 ,double const &__ptr64 )
??Vaf@@YA?AVarray@0@AEBV10@AEBN@Z
; class af::array __cdecl af::operator &&(class af::array const &__ptr64 ,struct af::af_cdouble const &__ptr64 )
??Vaf@@YA?AVarray@0@AEBV10@AEBUaf_cdouble@0@@Z
; class af::array __cdecl af::operator &&(class af::array const &__ptr64 ,struct af::af_cfloat const &__ptr64 )
??Vaf@@YA?AVarray@0@AEBV10@AEBUaf_cfloat@0@@Z
; class af::array __cdecl af::operator &&(class af::array const &__ptr64 ,__int64 const &__ptr64 )
??Vaf@@YA?AVarray@0@AEBV10@AEB_J@Z
; class af::array __cdecl af::operator &&(class af::array const &__ptr64 ,unsigned __int64 const &__ptr64 )
??Vaf@@YA?AVarray@0@AEBV10@AEB_K@Z
; class af::array __cdecl af::operator &&(class af::array const &__ptr64 ,bool const &__ptr64 )
??Vaf@@YA?AVarray@0@AEBV10@AEB_N@Z
; class af::array __cdecl af::operator &&(__int64 const &__ptr64 ,class af::array const &__ptr64 )
??Vaf@@YA?AVarray@0@AEB_JAEBV10@@Z
; class af::array __cdecl af::operator &&(unsigned __int64 const &__ptr64 ,class af::array const &__ptr64 )
??Vaf@@YA?AVarray@0@AEB_KAEBV10@@Z
; class af::array __cdecl af::operator &&(bool const &__ptr64 ,class af::array const &__ptr64 )
??Vaf@@YA?AVarray@0@AEB_NAEBV10@@Z
; class af::array __cdecl af::operator ||(signed char const &__ptr64 ,class af::array const &__ptr64 )
??Waf@@YA?AVarray@0@AEBCAEBV10@@Z
; class af::array __cdecl af::operator ||(char const &__ptr64 ,class af::array const &__ptr64 )
??Waf@@YA?AVarray@0@AEBDAEBV10@@Z
; class af::array __cdecl af::operator ||(unsigned char const &__ptr64 ,class af::array const &__ptr64 )
??Waf@@YA?AVarray@0@AEBEAEBV10@@Z
; class af::array __cdecl af::operator ||(short const &__ptr64 ,class af::array const &__ptr64 )
??Waf@@YA?AVarray@0@AEBFAEBV10@@Z
; class af::array __cdecl af::operator ||(unsigned short const &__ptr64 ,class af::array const &__ptr64 )
??Waf@@YA?AVarray@0@AEBGAEBV10@@Z
; class af::array __cdecl af::operator ||(int const &__ptr64 ,class af::array const &__ptr64 )
??Waf@@YA?AVarray@0@AEBHAEBV10@@Z
; class af::array __cdecl af::operator ||(unsigned int const &__ptr64 ,class af::array const &__ptr64 )
??Waf@@YA?AVarray@0@AEBIAEBV10@@Z
; class af::array __cdecl af::operator ||(long const &__ptr64 ,class af::array const &__ptr64 )
??Waf@@YA?AVarray@0@AEBJAEBV10@@Z
; class af::array __cdecl af::operator ||(unsigned long const &__ptr64 ,class af::array const &__ptr64 )
??Waf@@YA?AVarray@0@AEBKAEBV10@@Z
; class af::array __cdecl af::operator ||(float const &__ptr64 ,class af::array const &__ptr64 )
??Waf@@YA?AVarray@0@AEBMAEBV10@@Z
; class af::array __cdecl af::operator ||(double const &__ptr64 ,class af::array const &__ptr64 )
??Waf@@YA?AVarray@0@AEBNAEBV10@@Z
; class af::array __cdecl af::operator ||(struct af::af_cdouble const &__ptr64 ,class af::array const &__ptr64 )
??Waf@@YA?AVarray@0@AEBUaf_cdouble@0@AEBV10@@Z
; class af::array __cdecl af::operator ||(struct af::af_cfloat const &__ptr64 ,class af::array const &__ptr64 )
??Waf@@YA?AVarray@0@AEBUaf_cfloat@0@AEBV10@@Z
; class af::array __cdecl af::operator ||(class af::array const &__ptr64 ,class af::array const &__ptr64 )
??Waf@@YA?AVarray@0@AEBV10@0@Z
; class af::array __cdecl af::operator ||(class af::array const &__ptr64 ,signed char const &__ptr64 )
??Waf@@YA?AVarray@0@AEBV10@AEBC@Z
; class af::array __cdecl af::operator ||(class af::array const &__ptr64 ,char const &__ptr64 )
??Waf@@YA?AVarray@0@AEBV10@AEBD@Z
; class af::array __cdecl af::operator ||(class af::array const &__ptr64 ,unsigned char const &__ptr64 )
??Waf@@YA?AVarray@0@AEBV10@AEBE@Z
; class af::array __cdecl af::operator ||(class af::array const &__ptr64 ,short const &__ptr64 )
??Waf@@YA?AVarray@0@AEBV10@AEBF@Z
; class af::array __cdecl af::operator ||(class af::array const &__ptr64 ,unsigned short const &__ptr64 )
??Waf@@YA?AVarray@0@AEBV10@AEBG@Z
; class af::array __cdecl af::operator ||(class af::array const &__ptr64 ,int const &__ptr64 )
??Waf@@YA?AVarray@0@AEBV10@AEBH@Z
; class af::array __cdecl af::operator ||(class af::array const &__ptr64 ,unsigned int const &__ptr64 )
??Waf@@YA?AVarray@0@AEBV10@AEBI@Z
; class af::array __cdecl af::operator ||(class af::array const &__ptr64 ,long const &__ptr64 )
??Waf@@YA?AVarray@0@AEBV10@AEBJ@Z
; class af::array __cdecl af::operator ||(class af::array const &__ptr64 ,unsigned long const &__ptr64 )
??Waf@@YA?AVarray@0@AEBV10@AEBK@Z
; class af::array __cdecl af::operator ||(class af::array const &__ptr64 ,float const &__ptr64 )
??Waf@@YA?AVarray@0@AEBV10@AEBM@Z
; class af::array __cdecl af::operator ||(class af::array const &__ptr64 ,double const &__ptr64 )
??Waf@@YA?AVarray@0@AEBV10@AEBN@Z
; class af::array __cdecl af::operator ||(class af::array const &__ptr64 ,struct af::af_cdouble const &__ptr64 )
??Waf@@YA?AVarray@0@AEBV10@AEBUaf_cdouble@0@@Z
; class af::array __cdecl af::operator ||(class af::array const &__ptr64 ,struct af::af_cfloat const &__ptr64 )
??Waf@@YA?AVarray@0@AEBV10@AEBUaf_cfloat@0@@Z
; class af::array __cdecl af::operator ||(class af::array const &__ptr64 ,__int64 const &__ptr64 )
??Waf@@YA?AVarray@0@AEBV10@AEB_J@Z
; class af::array __cdecl af::operator ||(class af::array const &__ptr64 ,unsigned __int64 const &__ptr64 )
??Waf@@YA?AVarray@0@AEBV10@AEB_K@Z
; class af::array __cdecl af::operator ||(class af::array const &__ptr64 ,bool const &__ptr64 )
??Waf@@YA?AVarray@0@AEBV10@AEB_N@Z
; class af::array __cdecl af::operator ||(__int64 const &__ptr64 ,class af::array const &__ptr64 )
??Waf@@YA?AVarray@0@AEB_JAEBV10@@Z
; class af::array __cdecl af::operator ||(unsigned __int64 const &__ptr64 ,class af::array const &__ptr64 )
??Waf@@YA?AVarray@0@AEB_KAEBV10@@Z
; class af::array __cdecl af::operator ||(bool const &__ptr64 ,class af::array const &__ptr64 )
??Waf@@YA?AVarray@0@AEB_NAEBV10@@Z
; public: class af::array &__ptr64 __cdecl af::array::operator *=(signed char const &__ptr64 )__ptr64 
??Xarray@af@@QEAAAEAV01@AEBC@Z
; public: class af::array &__ptr64 __cdecl af::array::operator *=(char const &__ptr64 )__ptr64 
??Xarray@af@@QEAAAEAV01@AEBD@Z
; public: class af::array &__ptr64 __cdecl af::array::operator *=(unsigned char const &__ptr64 )__ptr64 
??Xarray@af@@QEAAAEAV01@AEBE@Z
; public: class af::array &__ptr64 __cdecl af::array::operator *=(short const &__ptr64 )__ptr64 
??Xarray@af@@QEAAAEAV01@AEBF@Z
; public: class af::array &__ptr64 __cdecl af::array::operator *=(unsigned short const &__ptr64 )__ptr64 
??Xarray@af@@QEAAAEAV01@AEBG@Z
; public: class af::array &__ptr64 __cdecl af::array::operator *=(int const &__ptr64 )__ptr64 
??Xarray@af@@QEAAAEAV01@AEBH@Z
; public: class af::array &__ptr64 __cdecl af::array::operator *=(unsigned int const &__ptr64 )__ptr64 
??Xarray@af@@QEAAAEAV01@AEBI@Z
; public: class af::array &__ptr64 __cdecl af::array::operator *=(long const &__ptr64 )__ptr64 
??Xarray@af@@QEAAAEAV01@AEBJ@Z
; public: class af::array &__ptr64 __cdecl af::array::operator *=(unsigned long const &__ptr64 )__ptr64 
??Xarray@af@@QEAAAEAV01@AEBK@Z
; public: class af::array &__ptr64 __cdecl af::array::operator *=(float const &__ptr64 )__ptr64 
??Xarray@af@@QEAAAEAV01@AEBM@Z
; public: class af::array &__ptr64 __cdecl af::array::operator *=(double const &__ptr64 )__ptr64 
??Xarray@af@@QEAAAEAV01@AEBN@Z
; public: class af::array &__ptr64 __cdecl af::array::operator *=(struct af::af_cdouble const &__ptr64 )__ptr64 
??Xarray@af@@QEAAAEAV01@AEBUaf_cdouble@1@@Z
; public: class af::array &__ptr64 __cdecl af::array::operator *=(struct af::af_cfloat const &__ptr64 )__ptr64 
??Xarray@af@@QEAAAEAV01@AEBUaf_cfloat@1@@Z
; public: class af::array &__ptr64 __cdecl af::array::operator *=(class af::array const &__ptr64 )__ptr64 
??Xarray@af@@QEAAAEAV01@AEBV01@@Z
; public: class af::array &__ptr64 __cdecl af::array::operator *=(__int64 const &__ptr64 )__ptr64 
??Xarray@af@@QEAAAEAV01@AEB_J@Z
; public: class af::array &__ptr64 __cdecl af::array::operator *=(unsigned __int64 const &__ptr64 )__ptr64 
??Xarray@af@@QEAAAEAV01@AEB_K@Z
; public: class af::array &__ptr64 __cdecl af::array::operator *=(bool const &__ptr64 )__ptr64 
??Xarray@af@@QEAAAEAV01@AEB_N@Z
; public: class af::array::array_proxy &__ptr64 __cdecl af::array::array_proxy::operator *=(signed char const &__ptr64 )__ptr64 
??Xarray_proxy@array@af@@QEAAAEAV012@AEBC@Z
; public: class af::array::array_proxy &__ptr64 __cdecl af::array::array_proxy::operator *=(char const &__ptr64 )__ptr64 
??Xarray_proxy@array@af@@QEAAAEAV012@AEBD@Z
; public: class af::array::array_proxy &__ptr64 __cdecl af::array::array_proxy::operator *=(unsigned char const &__ptr64 )__ptr64 
??Xarray_proxy@array@af@@QEAAAEAV012@AEBE@Z
; public: class af::array::array_proxy &__ptr64 __cdecl af::array::array_proxy::operator *=(short const &__ptr64 )__ptr64 
??Xarray_proxy@array@af@@QEAAAEAV012@AEBF@Z
; public: class af::array::array_proxy &__ptr64 __cdecl af::array::array_proxy::operator *=(unsigned short const &__ptr64 )__ptr64 
??Xarray_proxy@array@af@@QEAAAEAV012@AEBG@Z
; public: class af::array::array_proxy &__ptr64 __cdecl af::array::array_proxy::operator *=(int const &__ptr64 )__ptr64 
??Xarray_proxy@array@af@@QEAAAEAV012@AEBH@Z
; public: class af::array::array_proxy &__ptr64 __cdecl af::array::array_proxy::operator *=(unsigned int const &__ptr64 )__ptr64 
??Xarray_proxy@array@af@@QEAAAEAV012@AEBI@Z
; public: class af::array::array_proxy &__ptr64 __cdecl af::array::array_proxy::operator *=(long const &__ptr64 )__ptr64 
??Xarray_proxy@array@af@@QEAAAEAV012@AEBJ@Z
; public: class af::array::array_proxy &__ptr64 __cdecl af::array::array_proxy::operator *=(unsigned long const &__ptr64 )__ptr64 
??Xarray_proxy@array@af@@QEAAAEAV012@AEBK@Z
; public: class af::array::array_proxy &__ptr64 __cdecl af::array::array_proxy::operator *=(float const &__ptr64 )__ptr64 
??Xarray_proxy@array@af@@QEAAAEAV012@AEBM@Z
; public: class af::array::array_proxy &__ptr64 __cdecl af::array::array_proxy::operator *=(double const &__ptr64 )__ptr64 
??Xarray_proxy@array@af@@QEAAAEAV012@AEBN@Z
; public: class af::array::array_proxy &__ptr64 __cdecl af::array::array_proxy::operator *=(struct af::af_cdouble const &__ptr64 )__ptr64 
??Xarray_proxy@array@af@@QEAAAEAV012@AEBUaf_cdouble@2@@Z
; public: class af::array::array_proxy &__ptr64 __cdecl af::array::array_proxy::operator *=(struct af::af_cfloat const &__ptr64 )__ptr64 
??Xarray_proxy@array@af@@QEAAAEAV012@AEBUaf_cfloat@2@@Z
; public: class af::array::array_proxy &__ptr64 __cdecl af::array::array_proxy::operator *=(class af::array::array_proxy const &__ptr64 )__ptr64 
??Xarray_proxy@array@af@@QEAAAEAV012@AEBV012@@Z
; public: class af::array::array_proxy &__ptr64 __cdecl af::array::array_proxy::operator *=(class af::array const &__ptr64 )__ptr64 
??Xarray_proxy@array@af@@QEAAAEAV012@AEBV12@@Z
; public: class af::array::array_proxy &__ptr64 __cdecl af::array::array_proxy::operator *=(__int64 const &__ptr64 )__ptr64 
??Xarray_proxy@array@af@@QEAAAEAV012@AEB_J@Z
; public: class af::array::array_proxy &__ptr64 __cdecl af::array::array_proxy::operator *=(unsigned __int64 const &__ptr64 )__ptr64 
??Xarray_proxy@array@af@@QEAAAEAV012@AEB_K@Z
; public: class af::array::array_proxy &__ptr64 __cdecl af::array::array_proxy::operator *=(bool const &__ptr64 )__ptr64 
??Xarray_proxy@array@af@@QEAAAEAV012@AEB_N@Z
; public: class af::dim4 &__ptr64 __cdecl af::dim4::operator *=(class af::dim4 const &__ptr64 )__ptr64 
??Xdim4@af@@QEAAAEAV01@AEBV01@@Z
; public: class af::array &__ptr64 __cdecl af::array::operator +=(signed char const &__ptr64 )__ptr64 
??Yarray@af@@QEAAAEAV01@AEBC@Z
; public: class af::array &__ptr64 __cdecl af::array::operator +=(char const &__ptr64 )__ptr64 
??Yarray@af@@QEAAAEAV01@AEBD@Z
; public: class af::array &__ptr64 __cdecl af::array::operator +=(unsigned char const &__ptr64 )__ptr64 
??Yarray@af@@QEAAAEAV01@AEBE@Z
; public: class af::array &__ptr64 __cdecl af::array::operator +=(short const &__ptr64 )__ptr64 
??Yarray@af@@QEAAAEAV01@AEBF@Z
; public: class af::array &__ptr64 __cdecl af::array::operator +=(unsigned short const &__ptr64 )__ptr64 
??Yarray@af@@QEAAAEAV01@AEBG@Z
; public: class af::array &__ptr64 __cdecl af::array::operator +=(int const &__ptr64 )__ptr64 
??Yarray@af@@QEAAAEAV01@AEBH@Z
; public: class af::array &__ptr64 __cdecl af::array::operator +=(unsigned int const &__ptr64 )__ptr64 
??Yarray@af@@QEAAAEAV01@AEBI@Z
; public: class af::array &__ptr64 __cdecl af::array::operator +=(long const &__ptr64 )__ptr64 
??Yarray@af@@QEAAAEAV01@AEBJ@Z
; public: class af::array &__ptr64 __cdecl af::array::operator +=(unsigned long const &__ptr64 )__ptr64 
??Yarray@af@@QEAAAEAV01@AEBK@Z
; public: class af::array &__ptr64 __cdecl af::array::operator +=(float const &__ptr64 )__ptr64 
??Yarray@af@@QEAAAEAV01@AEBM@Z
; public: class af::array &__ptr64 __cdecl af::array::operator +=(double const &__ptr64 )__ptr64 
??Yarray@af@@QEAAAEAV01@AEBN@Z
; public: class af::array &__ptr64 __cdecl af::array::operator +=(struct af::af_cdouble const &__ptr64 )__ptr64 
??Yarray@af@@QEAAAEAV01@AEBUaf_cdouble@1@@Z
; public: class af::array &__ptr64 __cdecl af::array::operator +=(struct af::af_cfloat const &__ptr64 )__ptr64 
??Yarray@af@@QEAAAEAV01@AEBUaf_cfloat@1@@Z
; public: class af::array &__ptr64 __cdecl af::array::operator +=(class af::array const &__ptr64 )__ptr64 
??Yarray@af@@QEAAAEAV01@AEBV01@@Z
; public: class af::array &__ptr64 __cdecl af::array::operator +=(__int64 const &__ptr64 )__ptr64 
??Yarray@af@@QEAAAEAV01@AEB_J@Z
; public: class af::array &__ptr64 __cdecl af::array::operator +=(unsigned __int64 const &__ptr64 )__ptr64 
??Yarray@af@@QEAAAEAV01@AEB_K@Z
; public: class af::array &__ptr64 __cdecl af::array::operator +=(bool const &__ptr64 )__ptr64 
??Yarray@af@@QEAAAEAV01@AEB_N@Z
; public: class af::array::array_proxy &__ptr64 __cdecl af::array::array_proxy::operator +=(signed char const &__ptr64 )__ptr64 
??Yarray_proxy@array@af@@QEAAAEAV012@AEBC@Z
; public: class af::array::array_proxy &__ptr64 __cdecl af::array::array_proxy::operator +=(char const &__ptr64 )__ptr64 
??Yarray_proxy@array@af@@QEAAAEAV012@AEBD@Z
; public: class af::array::array_proxy &__ptr64 __cdecl af::array::array_proxy::operator +=(unsigned char const &__ptr64 )__ptr64 
??Yarray_proxy@array@af@@QEAAAEAV012@AEBE@Z
; public: class af::array::array_proxy &__ptr64 __cdecl af::array::array_proxy::operator +=(short const &__ptr64 )__ptr64 
??Yarray_proxy@array@af@@QEAAAEAV012@AEBF@Z
; public: class af::array::array_proxy &__ptr64 __cdecl af::array::array_proxy::operator +=(unsigned short const &__ptr64 )__ptr64 
??Yarray_proxy@array@af@@QEAAAEAV012@AEBG@Z
; public: class af::array::array_proxy &__ptr64 __cdecl af::array::array_proxy::operator +=(int const &__ptr64 )__ptr64 
??Yarray_proxy@array@af@@QEAAAEAV012@AEBH@Z
; public: class af::array::array_proxy &__ptr64 __cdecl af::array::array_proxy::operator +=(unsigned int const &__ptr64 )__ptr64 
??Yarray_proxy@array@af@@QEAAAEAV012@AEBI@Z
; public: class af::array::array_proxy &__ptr64 __cdecl af::array::array_proxy::operator +=(long const &__ptr64 )__ptr64 
??Yarray_proxy@array@af@@QEAAAEAV012@AEBJ@Z
; public: class af::array::array_proxy &__ptr64 __cdecl af::array::array_proxy::operator +=(unsigned long const &__ptr64 )__ptr64 
??Yarray_proxy@array@af@@QEAAAEAV012@AEBK@Z
; public: class af::array::array_proxy &__ptr64 __cdecl af::array::array_proxy::operator +=(float const &__ptr64 )__ptr64 
??Yarray_proxy@array@af@@QEAAAEAV012@AEBM@Z
; public: class af::array::array_proxy &__ptr64 __cdecl af::array::array_proxy::operator +=(double const &__ptr64 )__ptr64 
??Yarray_proxy@array@af@@QEAAAEAV012@AEBN@Z
; public: class af::array::array_proxy &__ptr64 __cdecl af::array::array_proxy::operator +=(struct af::af_cdouble const &__ptr64 )__ptr64 
??Yarray_proxy@array@af@@QEAAAEAV012@AEBUaf_cdouble@2@@Z
; public: class af::array::array_proxy &__ptr64 __cdecl af::array::array_proxy::operator +=(struct af::af_cfloat const &__ptr64 )__ptr64 
??Yarray_proxy@array@af@@QEAAAEAV012@AEBUaf_cfloat@2@@Z
; public: class af::array::array_proxy &__ptr64 __cdecl af::array::array_proxy::operator +=(class af::array::array_proxy const &__ptr64 )__ptr64 
??Yarray_proxy@array@af@@QEAAAEAV012@AEBV012@@Z
; public: class af::array::array_proxy &__ptr64 __cdecl af::array::array_proxy::operator +=(class af::array const &__ptr64 )__ptr64 
??Yarray_proxy@array@af@@QEAAAEAV012@AEBV12@@Z
; public: class af::array::array_proxy &__ptr64 __cdecl af::array::array_proxy::operator +=(__int64 const &__ptr64 )__ptr64 
??Yarray_proxy@array@af@@QEAAAEAV012@AEB_J@Z
; public: class af::array::array_proxy &__ptr64 __cdecl af::array::array_proxy::operator +=(unsigned __int64 const &__ptr64 )__ptr64 
??Yarray_proxy@array@af@@QEAAAEAV012@AEB_K@Z
; public: class af::array::array_proxy &__ptr64 __cdecl af::array::array_proxy::operator +=(bool const &__ptr64 )__ptr64 
??Yarray_proxy@array@af@@QEAAAEAV012@AEB_N@Z
; public: class af::dim4 &__ptr64 __cdecl af::dim4::operator +=(class af::dim4 const &__ptr64 )__ptr64 
??Ydim4@af@@QEAAAEAV01@AEBV01@@Z
; public: class af::array &__ptr64 __cdecl af::array::operator -=(signed char const &__ptr64 )__ptr64 
??Zarray@af@@QEAAAEAV01@AEBC@Z
; public: class af::array &__ptr64 __cdecl af::array::operator -=(char const &__ptr64 )__ptr64 
??Zarray@af@@QEAAAEAV01@AEBD@Z
; public: class af::array &__ptr64 __cdecl af::array::operator -=(unsigned char const &__ptr64 )__ptr64 
??Zarray@af@@QEAAAEAV01@AEBE@Z
; public: class af::array &__ptr64 __cdecl af::array::operator -=(short const &__ptr64 )__ptr64 
??Zarray@af@@QEAAAEAV01@AEBF@Z
; public: class af::array &__ptr64 __cdecl af::array::operator -=(unsigned short const &__ptr64 )__ptr64 
??Zarray@af@@QEAAAEAV01@AEBG@Z
; public: class af::array &__ptr64 __cdecl af::array::operator -=(int const &__ptr64 )__ptr64 
??Zarray@af@@QEAAAEAV01@AEBH@Z
; public: class af::array &__ptr64 __cdecl af::array::operator -=(unsigned int const &__ptr64 )__ptr64 
??Zarray@af@@QEAAAEAV01@AEBI@Z
; public: class af::array &__ptr64 __cdecl af::array::operator -=(long const &__ptr64 )__ptr64 
??Zarray@af@@QEAAAEAV01@AEBJ@Z
; public: class af::array &__ptr64 __cdecl af::array::operator -=(unsigned long const &__ptr64 )__ptr64 
??Zarray@af@@QEAAAEAV01@AEBK@Z
; public: class af::array &__ptr64 __cdecl af::array::operator -=(float const &__ptr64 )__ptr64 
??Zarray@af@@QEAAAEAV01@AEBM@Z
; public: class af::array &__ptr64 __cdecl af::array::operator -=(double const &__ptr64 )__ptr64 
??Zarray@af@@QEAAAEAV01@AEBN@Z
; public: class af::array &__ptr64 __cdecl af::array::operator -=(struct af::af_cdouble const &__ptr64 )__ptr64 
??Zarray@af@@QEAAAEAV01@AEBUaf_cdouble@1@@Z
; public: class af::array &__ptr64 __cdecl af::array::operator -=(struct af::af_cfloat const &__ptr64 )__ptr64 
??Zarray@af@@QEAAAEAV01@AEBUaf_cfloat@1@@Z
; public: class af::array &__ptr64 __cdecl af::array::operator -=(class af::array const &__ptr64 )__ptr64 
??Zarray@af@@QEAAAEAV01@AEBV01@@Z
; public: class af::array &__ptr64 __cdecl af::array::operator -=(__int64 const &__ptr64 )__ptr64 
??Zarray@af@@QEAAAEAV01@AEB_J@Z
; public: class af::array &__ptr64 __cdecl af::array::operator -=(unsigned __int64 const &__ptr64 )__ptr64 
??Zarray@af@@QEAAAEAV01@AEB_K@Z
; public: class af::array &__ptr64 __cdecl af::array::operator -=(bool const &__ptr64 )__ptr64 
??Zarray@af@@QEAAAEAV01@AEB_N@Z
; public: class af::array::array_proxy &__ptr64 __cdecl af::array::array_proxy::operator -=(signed char const &__ptr64 )__ptr64 
??Zarray_proxy@array@af@@QEAAAEAV012@AEBC@Z
; public: class af::array::array_proxy &__ptr64 __cdecl af::array::array_proxy::operator -=(char const &__ptr64 )__ptr64 
??Zarray_proxy@array@af@@QEAAAEAV012@AEBD@Z
; public: class af::array::array_proxy &__ptr64 __cdecl af::array::array_proxy::operator -=(unsigned char const &__ptr64 )__ptr64 
??Zarray_proxy@array@af@@QEAAAEAV012@AEBE@Z
; public: class af::array::array_proxy &__ptr64 __cdecl af::array::array_proxy::operator -=(short const &__ptr64 )__ptr64 
??Zarray_proxy@array@af@@QEAAAEAV012@AEBF@Z
; public: class af::array::array_proxy &__ptr64 __cdecl af::array::array_proxy::operator -=(unsigned short const &__ptr64 )__ptr64 
??Zarray_proxy@array@af@@QEAAAEAV012@AEBG@Z
; public: class af::array::array_proxy &__ptr64 __cdecl af::array::array_proxy::operator -=(int const &__ptr64 )__ptr64 
??Zarray_proxy@array@af@@QEAAAEAV012@AEBH@Z
; public: class af::array::array_proxy &__ptr64 __cdecl af::array::array_proxy::operator -=(unsigned int const &__ptr64 )__ptr64 
??Zarray_proxy@array@af@@QEAAAEAV012@AEBI@Z
; public: class af::array::array_proxy &__ptr64 __cdecl af::array::array_proxy::operator -=(long const &__ptr64 )__ptr64 
??Zarray_proxy@array@af@@QEAAAEAV012@AEBJ@Z
; public: class af::array::array_proxy &__ptr64 __cdecl af::array::array_proxy::operator -=(unsigned long const &__ptr64 )__ptr64 
??Zarray_proxy@array@af@@QEAAAEAV012@AEBK@Z
; public: class af::array::array_proxy &__ptr64 __cdecl af::array::array_proxy::operator -=(float const &__ptr64 )__ptr64 
??Zarray_proxy@array@af@@QEAAAEAV012@AEBM@Z
; public: class af::array::array_proxy &__ptr64 __cdecl af::array::array_proxy::operator -=(double const &__ptr64 )__ptr64 
??Zarray_proxy@array@af@@QEAAAEAV012@AEBN@Z
; public: class af::array::array_proxy &__ptr64 __cdecl af::array::array_proxy::operator -=(struct af::af_cdouble const &__ptr64 )__ptr64 
??Zarray_proxy@array@af@@QEAAAEAV012@AEBUaf_cdouble@2@@Z
; public: class af::array::array_proxy &__ptr64 __cdecl af::array::array_proxy::operator -=(struct af::af_cfloat const &__ptr64 )__ptr64 
??Zarray_proxy@array@af@@QEAAAEAV012@AEBUaf_cfloat@2@@Z
; public: class af::array::array_proxy &__ptr64 __cdecl af::array::array_proxy::operator -=(class af::array::array_proxy const &__ptr64 )__ptr64 
??Zarray_proxy@array@af@@QEAAAEAV012@AEBV012@@Z
; public: class af::array::array_proxy &__ptr64 __cdecl af::array::array_proxy::operator -=(class af::array const &__ptr64 )__ptr64 
??Zarray_proxy@array@af@@QEAAAEAV012@AEBV12@@Z
; public: class af::array::array_proxy &__ptr64 __cdecl af::array::array_proxy::operator -=(__int64 const &__ptr64 )__ptr64 
??Zarray_proxy@array@af@@QEAAAEAV012@AEB_J@Z
; public: class af::array::array_proxy &__ptr64 __cdecl af::array::array_proxy::operator -=(unsigned __int64 const &__ptr64 )__ptr64 
??Zarray_proxy@array@af@@QEAAAEAV012@AEB_K@Z
; public: class af::array::array_proxy &__ptr64 __cdecl af::array::array_proxy::operator -=(bool const &__ptr64 )__ptr64 
??Zarray_proxy@array@af@@QEAAAEAV012@AEB_N@Z
; public: class af::dim4 &__ptr64 __cdecl af::dim4::operator -=(class af::dim4 const &__ptr64 )__ptr64 
??Zdim4@af@@QEAAAEAV01@AEBV01@@Z
; public: class af::array &__ptr64 __cdecl af::array::operator /=(signed char const &__ptr64 )__ptr64 
??_0array@af@@QEAAAEAV01@AEBC@Z
; public: class af::array &__ptr64 __cdecl af::array::operator /=(char const &__ptr64 )__ptr64 
??_0array@af@@QEAAAEAV01@AEBD@Z
; public: class af::array &__ptr64 __cdecl af::array::operator /=(unsigned char const &__ptr64 )__ptr64 
??_0array@af@@QEAAAEAV01@AEBE@Z
; public: class af::array &__ptr64 __cdecl af::array::operator /=(short const &__ptr64 )__ptr64 
??_0array@af@@QEAAAEAV01@AEBF@Z
; public: class af::array &__ptr64 __cdecl af::array::operator /=(unsigned short const &__ptr64 )__ptr64 
??_0array@af@@QEAAAEAV01@AEBG@Z
; public: class af::array &__ptr64 __cdecl af::array::operator /=(int const &__ptr64 )__ptr64 
??_0array@af@@QEAAAEAV01@AEBH@Z
; public: class af::array &__ptr64 __cdecl af::array::operator /=(unsigned int const &__ptr64 )__ptr64 
??_0array@af@@QEAAAEAV01@AEBI@Z
; public: class af::array &__ptr64 __cdecl af::array::operator /=(long const &__ptr64 )__ptr64 
??_0array@af@@QEAAAEAV01@AEBJ@Z
; public: class af::array &__ptr64 __cdecl af::array::operator /=(unsigned long const &__ptr64 )__ptr64 
??_0array@af@@QEAAAEAV01@AEBK@Z
; public: class af::array &__ptr64 __cdecl af::array::operator /=(float const &__ptr64 )__ptr64 
??_0array@af@@QEAAAEAV01@AEBM@Z
; public: class af::array &__ptr64 __cdecl af::array::operator /=(double const &__ptr64 )__ptr64 
??_0array@af@@QEAAAEAV01@AEBN@Z
; public: class af::array &__ptr64 __cdecl af::array::operator /=(struct af::af_cdouble const &__ptr64 )__ptr64 
??_0array@af@@QEAAAEAV01@AEBUaf_cdouble@1@@Z
; public: class af::array &__ptr64 __cdecl af::array::operator /=(struct af::af_cfloat const &__ptr64 )__ptr64 
??_0array@af@@QEAAAEAV01@AEBUaf_cfloat@1@@Z
; public: class af::array &__ptr64 __cdecl af::array::operator /=(class af::array const &__ptr64 )__ptr64 
??_0array@af@@QEAAAEAV01@AEBV01@@Z
; public: class af::array &__ptr64 __cdecl af::array::operator /=(__int64 const &__ptr64 )__ptr64 
??_0array@af@@QEAAAEAV01@AEB_J@Z
; public: class af::array &__ptr64 __cdecl af::array::operator /=(unsigned __int64 const &__ptr64 )__ptr64 
??_0array@af@@QEAAAEAV01@AEB_K@Z
; public: class af::array &__ptr64 __cdecl af::array::operator /=(bool const &__ptr64 )__ptr64 
??_0array@af@@QEAAAEAV01@AEB_N@Z
; public: class af::array::array_proxy &__ptr64 __cdecl af::array::array_proxy::operator /=(signed char const &__ptr64 )__ptr64 
??_0array_proxy@array@af@@QEAAAEAV012@AEBC@Z
; public: class af::array::array_proxy &__ptr64 __cdecl af::array::array_proxy::operator /=(char const &__ptr64 )__ptr64 
??_0array_proxy@array@af@@QEAAAEAV012@AEBD@Z
; public: class af::array::array_proxy &__ptr64 __cdecl af::array::array_proxy::operator /=(unsigned char const &__ptr64 )__ptr64 
??_0array_proxy@array@af@@QEAAAEAV012@AEBE@Z
; public: class af::array::array_proxy &__ptr64 __cdecl af::array::array_proxy::operator /=(short const &__ptr64 )__ptr64 
??_0array_proxy@array@af@@QEAAAEAV012@AEBF@Z
; public: class af::array::array_proxy &__ptr64 __cdecl af::array::array_proxy::operator /=(unsigned short const &__ptr64 )__ptr64 
??_0array_proxy@array@af@@QEAAAEAV012@AEBG@Z
; public: class af::array::array_proxy &__ptr64 __cdecl af::array::array_proxy::operator /=(int const &__ptr64 )__ptr64 
??_0array_proxy@array@af@@QEAAAEAV012@AEBH@Z
; public: class af::array::array_proxy &__ptr64 __cdecl af::array::array_proxy::operator /=(unsigned int const &__ptr64 )__ptr64 
??_0array_proxy@array@af@@QEAAAEAV012@AEBI@Z
; public: class af::array::array_proxy &__ptr64 __cdecl af::array::array_proxy::operator /=(long const &__ptr64 )__ptr64 
??_0array_proxy@array@af@@QEAAAEAV012@AEBJ@Z
; public: class af::array::array_proxy &__ptr64 __cdecl af::array::array_proxy::operator /=(unsigned long const &__ptr64 )__ptr64 
??_0array_proxy@array@af@@QEAAAEAV012@AEBK@Z
; public: class af::array::array_proxy &__ptr64 __cdecl af::array::array_proxy::operator /=(float const &__ptr64 )__ptr64 
??_0array_proxy@array@af@@QEAAAEAV012@AEBM@Z
; public: class af::array::array_proxy &__ptr64 __cdecl af::array::array_proxy::operator /=(double const &__ptr64 )__ptr64 
??_0array_proxy@array@af@@QEAAAEAV012@AEBN@Z
; public: class af::array::array_proxy &__ptr64 __cdecl af::array::array_proxy::operator /=(struct af::af_cdouble const &__ptr64 )__ptr64 
??_0array_proxy@array@af@@QEAAAEAV012@AEBUaf_cdouble@2@@Z
; public: class af::array::array_proxy &__ptr64 __cdecl af::array::array_proxy::operator /=(struct af::af_cfloat const &__ptr64 )__ptr64 
??_0array_proxy@array@af@@QEAAAEAV012@AEBUaf_cfloat@2@@Z
; public: class af::array::array_proxy &__ptr64 __cdecl af::array::array_proxy::operator /=(class af::array::array_proxy const &__ptr64 )__ptr64 
??_0array_proxy@array@af@@QEAAAEAV012@AEBV012@@Z
; public: class af::array::array_proxy &__ptr64 __cdecl af::array::array_proxy::operator /=(class af::array const &__ptr64 )__ptr64 
??_0array_proxy@array@af@@QEAAAEAV012@AEBV12@@Z
; public: class af::array::array_proxy &__ptr64 __cdecl af::array::array_proxy::operator /=(__int64 const &__ptr64 )__ptr64 
??_0array_proxy@array@af@@QEAAAEAV012@AEB_J@Z
; public: class af::array::array_proxy &__ptr64 __cdecl af::array::array_proxy::operator /=(unsigned __int64 const &__ptr64 )__ptr64 
??_0array_proxy@array@af@@QEAAAEAV012@AEB_K@Z
; public: class af::array::array_proxy &__ptr64 __cdecl af::array::array_proxy::operator /=(bool const &__ptr64 )__ptr64 
??_0array_proxy@array@af@@QEAAAEAV012@AEB_N@Z
; const af::exception::$vftable
??_7exception@af@@6B@ DATA
; public: void __cdecl af::randomEngine::__dflt_ctor_closure(void)__ptr64 
??_FrandomEngine@af@@QEAAXXZ
; public: void __cdecl af::seq::__dflt_ctor_closure(void)__ptr64 
??_Fseq@af@@QEAAXXZ
; public: class af::array __cdecl af::array::H(void)const __ptr64 
?H@array@af@@QEBA?AV12@XZ
; public: class af::array __cdecl af::array::array_proxy::H(void)const __ptr64 
?H@array_proxy@array@af@@QEBA?AV23@XZ
; double const af::Inf
?Inf@af@@3NB DATA
; double const af::NaN
?NaN@af@@3NB DATA
; double const af::Pi
?Pi@af@@3NB DATA
; public: class af::array __cdecl af::array::T(void)const __ptr64 
?T@array@af@@QEBA?AV12@XZ
; public: class af::array __cdecl af::array::array_proxy::T(void)const __ptr64 
?T@array_proxy@array@af@@QEBA?AV23@XZ
; class af::array __cdecl af::abs(class af::array const &__ptr64 )
?abs@af@@YA?AVarray@1@AEBV21@@Z
; float __cdecl af::abs(struct af::af_cfloat const &__ptr64 )
?abs@af@@YAMAEBUaf_cfloat@1@@Z
; double __cdecl af::abs(struct af::af_cdouble const &__ptr64 )
?abs@af@@YANAEBUaf_cdouble@1@@Z
; class af::array __cdecl af::accum(class af::array const &__ptr64 ,int)
?accum@af@@YA?AVarray@1@AEBV21@H@Z
; class af::array __cdecl af::acos(class af::array const &__ptr64 )
?acos@af@@YA?AVarray@1@AEBV21@@Z
; class af::array __cdecl af::acosh(class af::array const &__ptr64 )
?acosh@af@@YA?AVarray@1@AEBV21@@Z
; class af::array __cdecl af::allTrue(class af::array const &__ptr64 ,int)
?allTrue@af@@YA?AVarray@1@AEBV21@H@Z
; void __cdecl af::allTrueByKey(class af::array &__ptr64 ,class af::array &__ptr64 ,class af::array const &__ptr64 ,class af::array const &__ptr64 ,int)
?allTrueByKey@af@@YAXAEAVarray@1@0AEBV21@1H@Z
; void *__ptr64 __cdecl af::alloc(unsigned __int64,enum af_dtype)
?alloc@af@@YAPEAX_KW4af_dtype@@@Z
; void *__ptr64 __cdecl af::allocHost(unsigned __int64,enum af_dtype)
?allocHost@af@@YAPEAX_KW4af_dtype@@@Z
; void *__ptr64 __cdecl af::allocV2(unsigned __int64)
?allocV2@af@@YAPEAX_K@Z
; public: unsigned __int64 __cdecl af::array::allocated(void)const __ptr64 
?allocated@array@af@@QEBA_KXZ
; public: unsigned __int64 __cdecl af::array::array_proxy::allocated(void)const __ptr64 
?allocated@array_proxy@array@af@@QEBA_KXZ
; class af::array __cdecl af::alltrue(class af::array const &__ptr64 ,int)
?alltrue@af@@YA?AVarray@1@AEBV21@H@Z
; class af::array __cdecl af::anisotropicDiffusion(class af::array const &__ptr64 ,float,float,unsigned int,enum af_flux_function,enum af_diffusion_eq)
?anisotropicDiffusion@af@@YA?AVarray@1@AEBV21@MMIW4af_flux_function@@W4af_diffusion_eq@@@Z
; class af::array __cdecl af::anyTrue(class af::array const &__ptr64 ,int)
?anyTrue@af@@YA?AVarray@1@AEBV21@H@Z
; void __cdecl af::anyTrueByKey(class af::array &__ptr64 ,class af::array &__ptr64 ,class af::array const &__ptr64 ,class af::array const &__ptr64 ,int)
?anyTrueByKey@af@@YAXAEAVarray@1@0AEBV21@1H@Z
; class af::array __cdecl af::anytrue(class af::array const &__ptr64 ,int)
?anytrue@af@@YA?AVarray@1@AEBV21@H@Z
; class af::array __cdecl af::approx1(class af::array const &__ptr64 ,class af::array const &__ptr64 ,int,double,double,enum af_interp_type,float)
?approx1@af@@YA?AVarray@1@AEBV21@0HNNW4af_interp_type@@M@Z
; class af::array __cdecl af::approx1(class af::array const &__ptr64 ,class af::array const &__ptr64 ,enum af_interp_type,float)
?approx1@af@@YA?AVarray@1@AEBV21@0W4af_interp_type@@M@Z
; class af::array __cdecl af::approx2(class af::array const &__ptr64 ,class af::array const &__ptr64 ,class af::array const &__ptr64 ,enum af_interp_type,float)
?approx2@af@@YA?AVarray@1@AEBV21@00W4af_interp_type@@M@Z
; class af::array __cdecl af::approx2(class af::array const &__ptr64 ,class af::array const &__ptr64 ,int,double,double,class af::array const &__ptr64 ,int,double,double,enum af_interp_type,float)
?approx2@af@@YA?AVarray@1@AEBV21@0HNN0HNNW4af_interp_type@@M@Z
; class af::array __cdecl af::arg(class af::array const &__ptr64 )
?arg@af@@YA?AVarray@1@AEBV21@@Z
; public: class af::array const __cdecl af::array::as(enum af_dtype)const __ptr64 
?as@array@af@@QEBA?BV12@W4af_dtype@@@Z
; public: class af::array __cdecl af::array::array_proxy::as(enum af_dtype)const __ptr64 
?as@array_proxy@array@af@@QEBA?AV23@W4af_dtype@@@Z
; class af::array __cdecl af::asin(class af::array const &__ptr64 )
?asin@af@@YA?AVarray@1@AEBV21@@Z
; class af::array __cdecl af::asinh(class af::array const &__ptr64 )
?asinh@af@@YA?AVarray@1@AEBV21@@Z
; class af::array __cdecl af::atan2(class af::array const &__ptr64 ,class af::array const &__ptr64 )
?atan2@af@@YA?AVarray@1@AEBV21@0@Z
; class af::array __cdecl af::atan2(class af::array const &__ptr64 ,double)
?atan2@af@@YA?AVarray@1@AEBV21@N@Z
; class af::array __cdecl af::atan2(double,class af::array const &__ptr64 )
?atan2@af@@YA?AVarray@1@NAEBV21@@Z
; class af::array __cdecl af::atan(class af::array const &__ptr64 )
?atan@af@@YA?AVarray@1@AEBV21@@Z
; class af::array __cdecl af::atanh(class af::array const &__ptr64 )
?atanh@af@@YA?AVarray@1@AEBV21@@Z
; class af::array __cdecl af::batchFunc(class af::array const &__ptr64 ,class af::array const &__ptr64 ,class af::array(__cdecl *)(class af::array const &__ptr64 ,class af::array const &__ptr64 ))
?batchFunc@af@@YA?AVarray@1@AEBV21@0P6A?AV21@00@Z@Z
; class af::array __cdecl af::bilateral(class af::array const &__ptr64 ,float,float,bool)
?bilateral@af@@YA?AVarray@1@AEBV21@MM_N@Z
; public: void __cdecl af::event::block(void)const __ptr64 
?block@event@af@@QEBAXXZ
; public: unsigned __int64 __cdecl af::array::bytes(void)const __ptr64 
?bytes@array@af@@QEBA_KXZ
; public: unsigned __int64 __cdecl af::array::array_proxy::bytes(void)const __ptr64 
?bytes@array_proxy@array@af@@QEBA_KXZ
; __int64 __cdecl af::calcDim(struct af_seq const &__ptr64 ,__int64 const &__ptr64 )
?calcDim@af@@YA_JAEBUaf_seq@@AEB_J@Z
; class af::array __cdecl af::canny(class af::array const &__ptr64 ,enum af_canny_threshold,float,float,unsigned int,bool)
?canny@af@@YA?AVarray@1@AEBV21@W4af_canny_threshold@@MMI_N@Z
; class af::array __cdecl af::cbrt(class af::array const &__ptr64 )
?cbrt@af@@YA?AVarray@1@AEBV21@@Z
; class af::array __cdecl af::ceil(class af::array const &__ptr64 )
?ceil@af@@YA?AVarray@1@AEBV21@@Z
; int __cdecl af::cholesky(class af::array &__ptr64 ,class af::array const &__ptr64 ,bool)
?cholesky@af@@YAHAEAVarray@1@AEBV21@_N@Z
; int __cdecl af::choleskyInPlace(class af::array &__ptr64 ,bool)
?choleskyInPlace@af@@YAHAEAVarray@1@_N@Z
; class af::array __cdecl af::clamp(class af::array const &__ptr64 ,class af::array const &__ptr64 ,class af::array const &__ptr64 )
?clamp@af@@YA?AVarray@1@AEBV21@00@Z
; class af::array __cdecl af::clamp(class af::array const &__ptr64 ,class af::array const &__ptr64 ,double)
?clamp@af@@YA?AVarray@1@AEBV21@0N@Z
; class af::array __cdecl af::clamp(class af::array const &__ptr64 ,double,class af::array const &__ptr64 )
?clamp@af@@YA?AVarray@1@AEBV21@N0@Z
; class af::array __cdecl af::clamp(class af::array const &__ptr64 ,double,double)
?clamp@af@@YA?AVarray@1@AEBV21@NN@Z
; public: bool __cdecl af::Window::close(void)__ptr64 
?close@Window@af@@QEAA_NXZ
; public: class af::array::array_proxy __cdecl af::array::col(int)__ptr64 
?col@array@af@@QEAA?AVarray_proxy@12@H@Z
; public: class af::array::array_proxy const __cdecl af::array::col(int)const __ptr64 
?col@array@af@@QEBA?BVarray_proxy@12@H@Z
; public: class af::array::array_proxy __cdecl af::array::array_proxy::col(int)__ptr64 
?col@array_proxy@array@af@@QEAA?AV123@H@Z
; public: class af::array::array_proxy const __cdecl af::array::array_proxy::col(int)const __ptr64 
?col@array_proxy@array@af@@QEBA?BV123@H@Z
; class af::array __cdecl af::colorSpace(class af::array const &__ptr64 ,enum af_cspace_t,enum af_cspace_t)
?colorSpace@af@@YA?AVarray@1@AEBV21@W4af_cspace_t@@1@Z
; class af::array __cdecl af::colorspace(class af::array const &__ptr64 ,enum af_cspace_t,enum af_cspace_t)
?colorspace@af@@YA?AVarray@1@AEBV21@W4af_cspace_t@@1@Z
; public: class af::array::array_proxy __cdecl af::array::cols(int,int)__ptr64 
?cols@array@af@@QEAA?AVarray_proxy@12@HH@Z
; public: class af::array::array_proxy const __cdecl af::array::cols(int,int)const __ptr64 
?cols@array@af@@QEBA?BVarray_proxy@12@HH@Z
; public: class af::array::array_proxy __cdecl af::array::array_proxy::cols(int,int)__ptr64 
?cols@array_proxy@array@af@@QEAA?AV123@HH@Z
; public: class af::array::array_proxy const __cdecl af::array::array_proxy::cols(int,int)const __ptr64 
?cols@array_proxy@array@af@@QEBA?BV123@HH@Z
; class af::array __cdecl af::complex(class af::array const &__ptr64 ,class af::array const &__ptr64 )
?complex@af@@YA?AVarray@1@AEBV21@0@Z
; class af::array __cdecl af::complex(class af::array const &__ptr64 )
?complex@af@@YA?AVarray@1@AEBV21@@Z
; class af::array __cdecl af::complex(class af::array const &__ptr64 ,double)
?complex@af@@YA?AVarray@1@AEBV21@N@Z
; class af::array __cdecl af::complex(double,class af::array const &__ptr64 )
?complex@af@@YA?AVarray@1@NAEBV21@@Z
; class af::array __cdecl af::confidenceCC(class af::array const &__ptr64 ,class af::array const &__ptr64 ,class af::array const &__ptr64 ,unsigned int,unsigned int,int,double)
?confidenceCC@af@@YA?AVarray@1@AEBV21@00IIHN@Z
; class af::array __cdecl af::confidenceCC(class af::array const &__ptr64 ,class af::array const &__ptr64 ,unsigned int,unsigned int,int,double)
?confidenceCC@af@@YA?AVarray@1@AEBV21@0IIHN@Z
; class af::array __cdecl af::confidenceCC(class af::array const &__ptr64 ,unsigned __int64,unsigned int const *__ptr64,unsigned int const *__ptr64,unsigned int,unsigned int,int,double)
?confidenceCC@af@@YA?AVarray@1@AEBV21@_KPEBI2IIHN@Z
; struct af::af_cdouble __cdecl af::conj(struct af::af_cdouble const &__ptr64 )
?conj@af@@YA?AUaf_cdouble@1@AEBU21@@Z
; struct af::af_cfloat __cdecl af::conj(struct af::af_cfloat const &__ptr64 )
?conj@af@@YA?AUaf_cfloat@1@AEBU21@@Z
; class af::array __cdecl af::conjg(class af::array const &__ptr64 )
?conjg@af@@YA?AVarray@1@AEBV21@@Z
; class af::array __cdecl af::convolve1(class af::array const &__ptr64 ,class af::array const &__ptr64 ,enum af_conv_mode,enum af_conv_domain)
?convolve1@af@@YA?AVarray@1@AEBV21@0W4af_conv_mode@@W4af_conv_domain@@@Z
; class af::array __cdecl af::convolve2(class af::array const &__ptr64 ,class af::array const &__ptr64 ,enum af_conv_mode,enum af_conv_domain)
?convolve2@af@@YA?AVarray@1@AEBV21@0W4af_conv_mode@@W4af_conv_domain@@@Z
; class af::array __cdecl af::convolve2GradientNN(class af::array const &__ptr64 ,class af::array const &__ptr64 ,class af::array const &__ptr64 ,class af::array const &__ptr64 ,class af::dim4,class af::dim4,class af::dim4,enum af_conv_gradient_type)
?convolve2GradientNN@af@@YA?AVarray@1@AEBV21@000Vdim4@1@11W4af_conv_gradient_type@@@Z
; class af::array __cdecl af::convolve2NN(class af::array const &__ptr64 ,class af::array const &__ptr64 ,class af::dim4,class af::dim4,class af::dim4)
?convolve2NN@af@@YA?AVarray@1@AEBV21@0Vdim4@1@11@Z
; class af::array __cdecl af::convolve3(class af::array const &__ptr64 ,class af::array const &__ptr64 ,enum af_conv_mode,enum af_conv_domain)
?convolve3@af@@YA?AVarray@1@AEBV21@0W4af_conv_mode@@W4af_conv_domain@@@Z
; class af::array __cdecl af::convolve(class af::array const &__ptr64 ,class af::array const &__ptr64 ,class af::array const &__ptr64 ,enum af_conv_mode)
?convolve@af@@YA?AVarray@1@AEBV21@00W4af_conv_mode@@@Z
; class af::array __cdecl af::convolve(class af::array const &__ptr64 ,class af::array const &__ptr64 ,enum af_conv_mode,enum af_conv_domain)
?convolve@af@@YA?AVarray@1@AEBV21@0W4af_conv_mode@@W4af_conv_domain@@@Z
; void __cdecl af::copy(class af::array &__ptr64 ,class af::array const &__ptr64 ,class af::index const &__ptr64 ,class af::index const &__ptr64 ,class af::index const &__ptr64 ,class af::index const &__ptr64 )
?copy@af@@YAXAEAVarray@1@AEBV21@AEBVindex@1@222@Z
; public: class af::array __cdecl af::array::copy(void)const __ptr64 
?copy@array@af@@QEBA?AV12@XZ
; public: class af::array __cdecl af::array::array_proxy::copy(void)const __ptr64 
?copy@array_proxy@array@af@@QEBA?AV23@XZ
; class af::array __cdecl af::cos(class af::array const &__ptr64 )
?cos@af@@YA?AVarray@1@AEBV21@@Z
; class af::array __cdecl af::cosh(class af::array const &__ptr64 )
?cosh@af@@YA?AVarray@1@AEBV21@@Z
; class af::array __cdecl af::count(class af::array const &__ptr64 ,int)
?count@af@@YA?AVarray@1@AEBV21@H@Z
; void __cdecl af::countByKey(class af::array &__ptr64 ,class af::array &__ptr64 ,class af::array const &__ptr64 ,class af::array const &__ptr64 ,int)
?countByKey@af@@YAXAEAVarray@1@0AEBV21@1H@Z
; class af::array __cdecl af::cov(class af::array const &__ptr64 ,class af::array const &__ptr64 ,enum af_var_bias)
?cov@af@@YA?AVarray@1@AEBV21@0W4af_var_bias@@@Z
; class af::array __cdecl af::cov(class af::array const &__ptr64 ,class af::array const &__ptr64 ,bool)
?cov@af@@YA?AVarray@1@AEBV21@0_N@Z
; class af::array __cdecl af::createStridedArray(void const *__ptr64,__int64,class af::dim4,class af::dim4,enum af_dtype,enum af_source)
?createStridedArray@af@@YA?AVarray@1@PEBX_JVdim4@1@2W4af_dtype@@W4af_source@@@Z
; void __cdecl af::deleteImageMem(void *__ptr64)
?deleteImageMem@af@@YAXPEAX@Z
; class af::array __cdecl af::dense(class af::array)
?dense@af@@YA?AVarray@1@V21@@Z
; void __cdecl af::deviceGC(void)
?deviceGC@af@@YAXXZ
; void __cdecl af::deviceInfo(char *__ptr64,char *__ptr64,char *__ptr64,char *__ptr64)
?deviceInfo@af@@YAXPEAD000@Z
; void __cdecl af::deviceMemInfo(unsigned __int64 *__ptr64,unsigned __int64 *__ptr64,unsigned __int64 *__ptr64,unsigned __int64 *__ptr64)
?deviceMemInfo@af@@YAXPEA_K000@Z
; int __cdecl af::devicecount(void)
?devicecount@af@@YAHXZ
; int __cdecl af::deviceget(void)
?deviceget@af@@YAHXZ
; void __cdecl af::deviceprop(char *__ptr64,char *__ptr64,char *__ptr64,char *__ptr64)
?deviceprop@af@@YAXPEAD000@Z
; void __cdecl af::deviceset(int)
?deviceset@af@@YAXH@Z
; class af::array __cdecl af::dft(class af::array const &__ptr64 )
?dft@af@@YA?AVarray@1@AEBV21@@Z
; class af::array __cdecl af::dft(class af::array const &__ptr64 ,double,class af::dim4)
?dft@af@@YA?AVarray@1@AEBV21@NVdim4@1@@Z
; class af::array __cdecl af::dft(class af::array const &__ptr64 ,class af::dim4)
?dft@af@@YA?AVarray@1@AEBV21@Vdim4@1@@Z
; class af::array __cdecl af::diag(class af::array const &__ptr64 ,int,bool)
?diag@af@@YA?AVarray@1@AEBV21@H_N@Z
; class af::array __cdecl af::diff1(class af::array const &__ptr64 ,int)
?diff1@af@@YA?AVarray@1@AEBV21@H@Z
; class af::array __cdecl af::diff2(class af::array const &__ptr64 ,int)
?diff2@af@@YA?AVarray@1@AEBV21@H@Z
; class af::array __cdecl af::dilate3(class af::array const &__ptr64 ,class af::array const &__ptr64 )
?dilate3@af@@YA?AVarray@1@AEBV21@0@Z
; class af::array __cdecl af::dilate(class af::array const &__ptr64 ,class af::array const &__ptr64 )
?dilate@af@@YA?AVarray@1@AEBV21@0@Z
; public: class af::dim4 __cdecl af::array::dims(void)const __ptr64 
?dims@array@af@@QEBA?AVdim4@2@XZ
; public: __int64 __cdecl af::array::dims(unsigned int)const __ptr64 
?dims@array@af@@QEBA_JI@Z
; public: class af::dim4 __cdecl af::array::array_proxy::dims(void)const __ptr64 
?dims@array_proxy@array@af@@QEBA?AVdim4@3@XZ
; public: __int64 __cdecl af::array::array_proxy::dims(unsigned int)const __ptr64 
?dims@array_proxy@array@af@@QEBA_JI@Z
; class af::array __cdecl af::dog(class af::array const &__ptr64 ,int,int)
?dog@af@@YA?AVarray@1@AEBV21@HH@Z
; class af::array __cdecl af::dot(class af::array const &__ptr64 ,class af::array const &__ptr64 ,enum af_mat_prop,enum af_mat_prop)
?dot@af@@YA?AVarray@1@AEBV21@0W4af_mat_prop@@1@Z
; public: __int64 __cdecl af::array::elements(void)const __ptr64 
?elements@array@af@@QEBA_JXZ
; public: __int64 __cdecl af::array::array_proxy::elements(void)const __ptr64 
?elements@array_proxy@array@af@@QEBA_JXZ
; public: __int64 __cdecl af::dim4::elements(void)__ptr64 
?elements@dim4@af@@QEAA_JXZ
; public: __int64 __cdecl af::dim4::elements(void)const __ptr64 
?elements@dim4@af@@QEBA_JXZ
; int af::end
?end@af@@3HA DATA
; public: void __cdecl af::event::enqueue(void)__ptr64 
?enqueue@event@af@@QEAAXXZ
; class af::array __cdecl af::erf(class af::array const &__ptr64 )
?erf@af@@YA?AVarray@1@AEBV21@@Z
; class af::array __cdecl af::erfc(class af::array const &__ptr64 )
?erfc@af@@YA?AVarray@1@AEBV21@@Z
; class af::array __cdecl af::erode3(class af::array const &__ptr64 ,class af::array const &__ptr64 )
?erode3@af@@YA?AVarray@1@AEBV21@0@Z
; class af::array __cdecl af::erode(class af::array const &__ptr64 ,class af::array const &__ptr64 )
?erode@af@@YA?AVarray@1@AEBV21@0@Z
; public: enum af_err __cdecl af::exception::err(void)__ptr64 
?err@exception@af@@QEAA?AW4af_err@@XZ
; void __cdecl af::eval(int,class af::array *__ptr64 *__ptr64)
?eval@af@@YAXHPEAPEAVarray@1@@Z
; public: void __cdecl af::array::eval(void)const __ptr64 
?eval@array@af@@QEBAXXZ
; public: void __cdecl af::array::array_proxy::eval(void)const __ptr64 
?eval@array_proxy@array@af@@QEBAXXZ
; class af::array __cdecl af::exampleFunction(class af::array const &__ptr64 ,enum af_someenum_t)
?exampleFunction@af@@YA?AVarray@1@AEBV21@W4af_someenum_t@@@Z
; class af::array __cdecl af::exp(class af::array const &__ptr64 )
?exp@af@@YA?AVarray@1@AEBV21@@Z
; class af::array __cdecl af::expm1(class af::array const &__ptr64 )
?expm1@af@@YA?AVarray@1@AEBV21@@Z
; class af::array __cdecl af::factorial(class af::array const &__ptr64 )
?factorial@af@@YA?AVarray@1@AEBV21@@Z
; class af::features __cdecl af::fast(class af::array const &__ptr64 ,float,unsigned int,bool,float,unsigned int)
?fast@af@@YA?AVfeatures@1@AEBVarray@1@MI_NMI@Z
; class af::array __cdecl af::fft2(class af::array const &__ptr64 ,__int64,__int64)
?fft2@af@@YA?AVarray@1@AEBV21@_J1@Z
; void __cdecl af::fft2InPlace(class af::array &__ptr64 ,double)
?fft2InPlace@af@@YAXAEAVarray@1@N@Z
; class af::array __cdecl af::fft2Norm(class af::array const &__ptr64 ,double,__int64,__int64)
?fft2Norm@af@@YA?AVarray@1@AEBV21@N_J1@Z
; class af::array __cdecl af::fft3(class af::array const &__ptr64 ,__int64,__int64,__int64)
?fft3@af@@YA?AVarray@1@AEBV21@_J11@Z
; void __cdecl af::fft3InPlace(class af::array &__ptr64 ,double)
?fft3InPlace@af@@YAXAEAVarray@1@N@Z
; class af::array __cdecl af::fft3Norm(class af::array const &__ptr64 ,double,__int64,__int64,__int64)
?fft3Norm@af@@YA?AVarray@1@AEBV21@N_J11@Z
; class af::array __cdecl af::fft(class af::array const &__ptr64 ,__int64)
?fft@af@@YA?AVarray@1@AEBV21@_J@Z
; class af::array __cdecl af::fftConvolve1(class af::array const &__ptr64 ,class af::array const &__ptr64 ,enum af_conv_mode)
?fftConvolve1@af@@YA?AVarray@1@AEBV21@0W4af_conv_mode@@@Z
; class af::array __cdecl af::fftConvolve2(class af::array const &__ptr64 ,class af::array const &__ptr64 ,enum af_conv_mode)
?fftConvolve2@af@@YA?AVarray@1@AEBV21@0W4af_conv_mode@@@Z
; class af::array __cdecl af::fftConvolve3(class af::array const &__ptr64 ,class af::array const &__ptr64 ,enum af_conv_mode)
?fftConvolve3@af@@YA?AVarray@1@AEBV21@0W4af_conv_mode@@@Z
; class af::array __cdecl af::fftConvolve(class af::array const &__ptr64 ,class af::array const &__ptr64 ,enum af_conv_mode)
?fftConvolve@af@@YA?AVarray@1@AEBV21@0W4af_conv_mode@@@Z
; void __cdecl af::fftInPlace(class af::array &__ptr64 ,double)
?fftInPlace@af@@YAXAEAVarray@1@N@Z
; class af::array __cdecl af::fftNorm(class af::array const &__ptr64 ,double,__int64)
?fftNorm@af@@YA?AVarray@1@AEBV21@N_J@Z
; class af::array __cdecl af::filter(class af::array const &__ptr64 ,class af::array const &__ptr64 )
?filter@af@@YA?AVarray@1@AEBV21@0@Z
; class af::array __cdecl af::fir(class af::array const &__ptr64 ,class af::array const &__ptr64 )
?fir@af@@YA?AVarray@1@AEBV21@0@Z
; class af::array __cdecl af::flat(class af::array const &__ptr64 )
?flat@af@@YA?AVarray@1@AEBV21@@Z
; class af::array __cdecl af::flip(class af::array const &__ptr64 ,unsigned int)
?flip@af@@YA?AVarray@1@AEBV21@I@Z
; class af::array __cdecl af::floor(class af::array const &__ptr64 )
?floor@af@@YA?AVarray@1@AEBV21@@Z
; void __cdecl af::free(void const *__ptr64)
?free@af@@YAXPEBX@Z
; void __cdecl af::freeHost(void const *__ptr64)
?freeHost@af@@YAXPEBX@Z
; void __cdecl af::freePinned(void const *__ptr64)
?freePinned@af@@YAXPEBX@Z
; void __cdecl af::freeV2(void const *__ptr64)
?freeV2@af@@YAXPEBX@Z
; class af::array __cdecl af::gaussianKernel(int,int,double,double)
?gaussianKernel@af@@YA?AVarray@1@HHNN@Z
; class af::array __cdecl af::gaussiankernel(int,int,double,double)
?gaussiankernel@af@@YA?AVarray@1@HHNN@Z
; public: void *__ptr64 __cdecl af::Window::get(void)const __ptr64 
?get@Window@af@@QEBAPEAXXZ
; public: void *__ptr64 __cdecl af::array::get(void)__ptr64 
?get@array@af@@QEAAPEAXXZ
; public: void *__ptr64 __cdecl af::array::get(void)const __ptr64 
?get@array@af@@QEBAPEAXXZ
; public: void *__ptr64 __cdecl af::array::array_proxy::get(void)const __ptr64 
?get@array_proxy@array@af@@QEBAPEAXXZ
; public: __int64 *__ptr64 __cdecl af::dim4::get(void)__ptr64 
?get@dim4@af@@QEAAPEA_JXZ
; public: __int64 const *__ptr64 __cdecl af::dim4::get(void)const __ptr64 
?get@dim4@af@@QEBAPEB_JXZ
; public: void *__ptr64 __cdecl af::event::get(void)const __ptr64 
?get@event@af@@QEBAPEAXXZ
; public: void *__ptr64 __cdecl af::features::get(void)const __ptr64 
?get@features@af@@QEBAPEAXXZ
; public: struct af_index_t const &__ptr64 __cdecl af::index::get(void)const __ptr64 
?get@index@af@@QEBAAEBUaf_index_t@@XZ
; public: void *__ptr64 __cdecl af::randomEngine::get(void)const __ptr64 
?get@randomEngine@af@@QEBAPEAXXZ
; enum af_backend __cdecl af::getActiveBackend(void)
?getActiveBackend@af@@YA?AW4af_backend@@XZ
; int __cdecl af::getAvailableBackends(void)
?getAvailableBackends@af@@YAHXZ
; unsigned int __cdecl af::getBackendCount(void)
?getBackendCount@af@@YAIXZ
; enum af_backend __cdecl af::getBackendId(class af::array const &__ptr64 )
?getBackendId@af@@YA?AW4af_backend@@AEBVarray@1@@Z
; class af::randomEngine __cdecl af::getDefaultRandomEngine(void)
?getDefaultRandomEngine@af@@YA?AVrandomEngine@1@XZ
; int __cdecl af::getDevice(void)
?getDevice@af@@YAHXZ
; int __cdecl af::getDeviceCount(void)
?getDeviceCount@af@@YAHXZ
; int __cdecl af::getDeviceId(class af::array const &__ptr64 )
?getDeviceId@af@@YAHAEBVarray@1@@Z
; bool __cdecl af::getManualEvalFlag(void)
?getManualEvalFlag@af@@YA_NXZ
; int __cdecl af::getMaxJitLen(void)
?getMaxJitLen@af@@YAHXZ
; unsigned __int64 __cdecl af::getMemStepSize(void)
?getMemStepSize@af@@YA_KXZ
; public: unsigned __int64 __cdecl af::features::getNumFeatures(void)const __ptr64 
?getNumFeatures@features@af@@QEBA_KXZ
; __int64 __cdecl af::getOffset(class af::array const &__ptr64 )
?getOffset@af@@YA_JAEBVarray@1@@Z
; public: class af::array __cdecl af::features::getOrientation(void)const __ptr64 
?getOrientation@features@af@@QEBA?AVarray@2@XZ
; void *__ptr64 __cdecl af::getRawPtr(class af::array const &__ptr64 )
?getRawPtr@af@@YAPEAXAEBVarray@1@@Z
; public: class af::array __cdecl af::features::getScore(void)const __ptr64 
?getScore@features@af@@QEBA?AVarray@2@XZ
; unsigned __int64 __cdecl af::getSeed(void)
?getSeed@af@@YA_KXZ
; public: unsigned __int64 __cdecl af::randomEngine::getSeed(void)const __ptr64 
?getSeed@randomEngine@af@@QEBA_KXZ
; public: class af::array __cdecl af::features::getSize(void)const __ptr64 
?getSize@features@af@@QEBA?AVarray@2@XZ
; unsigned __int64 __cdecl af::getSizeOf(enum af_dtype)
?getSizeOf@af@@YA_KW4af_dtype@@@Z
; class af::dim4 __cdecl af::getStrides(class af::array const &__ptr64 )
?getStrides@af@@YA?AVdim4@1@AEBVarray@1@@Z
; public: enum af_random_engine_type __cdecl af::randomEngine::getType(void)__ptr64 
?getType@randomEngine@af@@QEAA?AW4af_random_engine_type@@XZ
; public: class af::array __cdecl af::features::getX(void)const __ptr64 
?getX@features@af@@QEBA?AVarray@2@XZ
; public: class af::array __cdecl af::features::getY(void)const __ptr64 
?getY@features@af@@QEBA?AVarray@2@XZ
; bool __cdecl af::gforGet(void)
?gforGet@af@@YA_NXZ
; void __cdecl af::gforSet(bool)
?gforSet@af@@YAX_N@Z
; bool __cdecl af::gforToggle(void)
?gforToggle@af@@YA_NXZ
; void __cdecl af::gloh(class af::features &__ptr64 ,class af::array &__ptr64 ,class af::array const &__ptr64 ,unsigned int,float,float,float,bool,float,float)
?gloh@af@@YAXAEAVfeatures@1@AEAVarray@1@AEBV31@IMMM_NMM@Z
; void __cdecl af::grad(class af::array &__ptr64 ,class af::array &__ptr64 ,class af::array const &__ptr64 )
?grad@af@@YAXAEAVarray@1@0AEBV21@@Z
; class af::array __cdecl af::gray2rgb(class af::array const &__ptr64 ,float,float,float)
?gray2rgb@af@@YA?AVarray@1@AEBV21@MMM@Z
; public: void __cdecl af::Window::grid(int,int)__ptr64 
?grid@Window@af@@QEAAXHH@Z
; void __cdecl af::hammingMatcher(class af::array &__ptr64 ,class af::array &__ptr64 ,class af::array const &__ptr64 ,class af::array const &__ptr64 ,__int64,unsigned int)
?hammingMatcher@af@@YAXAEAVarray@1@0AEBV21@1_JI@Z
; class af::features __cdecl af::harris(class af::array const &__ptr64 ,unsigned int,float,float,unsigned int,float)
?harris@af@@YA?AVfeatures@1@AEBVarray@1@IMMIM@Z
; public: void __cdecl af::Window::hist(class af::array const &__ptr64 ,double,double,char const *__ptr64 const)__ptr64 
?hist@Window@af@@QEAAXAEBVarray@2@NNQEBD@Z
; class af::array __cdecl af::histEqual(class af::array const &__ptr64 ,class af::array const &__ptr64 )
?histEqual@af@@YA?AVarray@1@AEBV21@0@Z
; class af::array __cdecl af::histequal(class af::array const &__ptr64 ,class af::array const &__ptr64 )
?histequal@af@@YA?AVarray@1@AEBV21@0@Z
; class af::array __cdecl af::histogram(class af::array const &__ptr64 ,unsigned int)
?histogram@af@@YA?AVarray@1@AEBV21@I@Z
; class af::array __cdecl af::histogram(class af::array const &__ptr64 ,unsigned int,double,double)
?histogram@af@@YA?AVarray@1@AEBV21@INN@Z
; void __cdecl af::homography(class af::array &__ptr64 ,int &__ptr64 ,class af::array const &__ptr64 ,class af::array const &__ptr64 ,class af::array const &__ptr64 ,class af::array const &__ptr64 ,enum af_homography_type,float,unsigned int,enum af_dtype)
?homography@af@@YAXAEAVarray@1@AEAHAEBV21@222W4af_homography_type@@MIW4af_dtype@@@Z
; public: void __cdecl af::array::host(void *__ptr64)const __ptr64 
?host@array@af@@QEBAXPEAX@Z
; public: void __cdecl af::array::array_proxy::host(void *__ptr64)const __ptr64 
?host@array_proxy@array@af@@QEBAXPEAX@Z
; class af::array __cdecl af::hsv2rgb(class af::array const &__ptr64 )
?hsv2rgb@af@@YA?AVarray@1@AEBV21@@Z
; class af::array __cdecl af::hypot(class af::array const &__ptr64 ,class af::array const &__ptr64 )
?hypot@af@@YA?AVarray@1@AEBV21@0@Z
; class af::array __cdecl af::hypot(class af::array const &__ptr64 ,double)
?hypot@af@@YA?AVarray@1@AEBV21@N@Z
; class af::array __cdecl af::hypot(double,class af::array const &__ptr64 )
?hypot@af@@YA?AVarray@1@NAEBV21@@Z
; class af::array __cdecl af::identity(class af::dim4 const &__ptr64 ,enum af_dtype)
?identity@af@@YA?AVarray@1@AEBVdim4@1@W4af_dtype@@@Z
; class af::array __cdecl af::identity(__int64,__int64,__int64,__int64,enum af_dtype)
?identity@af@@YA?AVarray@1@_J000W4af_dtype@@@Z
; class af::array __cdecl af::identity(__int64,__int64,__int64,enum af_dtype)
?identity@af@@YA?AVarray@1@_J00W4af_dtype@@@Z
; class af::array __cdecl af::identity(__int64,__int64,enum af_dtype)
?identity@af@@YA?AVarray@1@_J0W4af_dtype@@@Z
; class af::array __cdecl af::identity(__int64,enum af_dtype)
?identity@af@@YA?AVarray@1@_JW4af_dtype@@@Z
; class af::array __cdecl af::idft(class af::array const &__ptr64 )
?idft@af@@YA?AVarray@1@AEBV21@@Z
; class af::array __cdecl af::idft(class af::array const &__ptr64 ,double,class af::dim4)
?idft@af@@YA?AVarray@1@AEBV21@NVdim4@1@@Z
; class af::array __cdecl af::idft(class af::array const &__ptr64 ,class af::dim4)
?idft@af@@YA?AVarray@1@AEBV21@Vdim4@1@@Z
; class af::array __cdecl af::ifft2(class af::array const &__ptr64 ,__int64,__int64)
?ifft2@af@@YA?AVarray@1@AEBV21@_J1@Z
; void __cdecl af::ifft2InPlace(class af::array &__ptr64 ,double)
?ifft2InPlace@af@@YAXAEAVarray@1@N@Z
; class af::array __cdecl af::ifft2Norm(class af::array const &__ptr64 ,double,__int64,__int64)
?ifft2Norm@af@@YA?AVarray@1@AEBV21@N_J1@Z
; class af::array __cdecl af::ifft3(class af::array const &__ptr64 ,__int64,__int64,__int64)
?ifft3@af@@YA?AVarray@1@AEBV21@_J11@Z
; void __cdecl af::ifft3InPlace(class af::array &__ptr64 ,double)
?ifft3InPlace@af@@YAXAEAVarray@1@N@Z
; class af::array __cdecl af::ifft3Norm(class af::array const &__ptr64 ,double,__int64,__int64,__int64)
?ifft3Norm@af@@YA?AVarray@1@AEBV21@N_J11@Z
; class af::array __cdecl af::ifft(class af::array const &__ptr64 ,__int64)
?ifft@af@@YA?AVarray@1@AEBV21@_J@Z
; void __cdecl af::ifftInPlace(class af::array &__ptr64 ,double)
?ifftInPlace@af@@YAXAEAVarray@1@N@Z
; class af::array __cdecl af::ifftNorm(class af::array const &__ptr64 ,double,__int64)
?ifftNorm@af@@YA?AVarray@1@AEBV21@N_J@Z
; class af::array __cdecl af::iir(class af::array const &__ptr64 ,class af::array const &__ptr64 ,class af::array const &__ptr64 )
?iir@af@@YA?AVarray@1@AEBV21@00@Z
; class af::array __cdecl af::imag(class af::array const &__ptr64 )
?imag@af@@YA?AVarray@1@AEBV21@@Z
; float __cdecl af::imag(struct af::af_cfloat)
?imag@af@@YAMUaf_cfloat@1@@Z
; double __cdecl af::imag(struct af::af_cdouble)
?imag@af@@YANUaf_cdouble@1@@Z
; public: void __cdecl af::Window::image(class af::array const &__ptr64 ,char const *__ptr64)__ptr64 
?image@Window@af@@QEAAXAEBVarray@2@PEBD@Z
; void __cdecl af::info(void)
?info@af@@YAXXZ
; char const *__ptr64 __cdecl af::infoString(bool)
?infoString@af@@YAPEBD_N@Z
; private: void __cdecl af::seq::init(double,double,double)__ptr64 
?init@seq@af@@AEAAXNNN@Z
; private: void __cdecl af::Window::initWindow(int,int,char const *__ptr64 const)__ptr64 
?initWindow@Window@af@@AEAAXHHQEBD@Z
; class af::array __cdecl af::inverse(class af::array const &__ptr64 ,enum af_mat_prop)
?inverse@af@@YA?AVarray@1@AEBV21@W4af_mat_prop@@@Z
; class af::array __cdecl af::inverseDeconv(class af::array const &__ptr64 ,class af::array const &__ptr64 ,float,enum af_inverse_deconv_algo)
?inverseDeconv@af@@YA?AVarray@1@AEBV21@0MW4af_inverse_deconv_algo@@@Z
; class af::array __cdecl af::iota(class af::dim4 const &__ptr64 ,class af::dim4 const &__ptr64 ,enum af_dtype)
?iota@af@@YA?AVarray@1@AEBVdim4@1@0W4af_dtype@@@Z
; bool __cdecl af::isDoubleAvailable(int)
?isDoubleAvailable@af@@YA_NH@Z
; bool __cdecl af::isHalfAvailable(int)
?isHalfAvailable@af@@YA_NH@Z
; bool __cdecl af::isImageIOAvailable(void)
?isImageIOAvailable@af@@YA_NXZ
; class af::array __cdecl af::isInf(class af::array const &__ptr64 )
?isInf@af@@YA?AVarray@1@AEBV21@@Z
; bool __cdecl af::isLAPACKAvailable(void)
?isLAPACKAvailable@af@@YA_NXZ
; bool __cdecl af::isLinear(class af::array const &__ptr64 )
?isLinear@af@@YA_NAEBVarray@1@@Z
; public: bool __cdecl af::array::isLocked(void)const __ptr64 
?isLocked@array@af@@QEBA_NXZ
; public: bool __cdecl af::array::array_proxy::isLocked(void)const __ptr64 
?isLocked@array_proxy@array@af@@QEBA_NXZ
; class af::array __cdecl af::isNaN(class af::array const &__ptr64 )
?isNaN@af@@YA?AVarray@1@AEBV21@@Z
; bool __cdecl af::isOwner(class af::array const &__ptr64 )
?isOwner@af@@YA_NAEBVarray@1@@Z
; bool __cdecl af::isSpan(struct af_seq const &__ptr64 )
?isSpan@af@@YA_NAEBUaf_seq@@@Z
; public: bool __cdecl af::array::isbool(void)const __ptr64 
?isbool@array@af@@QEBA_NXZ
; public: bool __cdecl af::array::array_proxy::isbool(void)const __ptr64 
?isbool@array_proxy@array@af@@QEBA_NXZ
; public: bool __cdecl af::array::iscolumn(void)const __ptr64 
?iscolumn@array@af@@QEBA_NXZ
; public: bool __cdecl af::array::array_proxy::iscolumn(void)const __ptr64 
?iscolumn@array_proxy@array@af@@QEBA_NXZ
; public: bool __cdecl af::array::iscomplex(void)const __ptr64 
?iscomplex@array@af@@QEBA_NXZ
; public: bool __cdecl af::array::array_proxy::iscomplex(void)const __ptr64 
?iscomplex@array_proxy@array@af@@QEBA_NXZ
; public: bool __cdecl af::array::isdouble(void)const __ptr64 
?isdouble@array@af@@QEBA_NXZ
; public: bool __cdecl af::array::array_proxy::isdouble(void)const __ptr64 
?isdouble@array_proxy@array@af@@QEBA_NXZ
; public: bool __cdecl af::array::isempty(void)const __ptr64 
?isempty@array@af@@QEBA_NXZ
; public: bool __cdecl af::array::array_proxy::isempty(void)const __ptr64 
?isempty@array_proxy@array@af@@QEBA_NXZ
; public: bool __cdecl af::array::isfloating(void)const __ptr64 
?isfloating@array@af@@QEBA_NXZ
; public: bool __cdecl af::array::array_proxy::isfloating(void)const __ptr64 
?isfloating@array_proxy@array@af@@QEBA_NXZ
; public: bool __cdecl af::array::ishalf(void)const __ptr64 
?ishalf@array@af@@QEBA_NXZ
; public: bool __cdecl af::array::array_proxy::ishalf(void)const __ptr64 
?ishalf@array_proxy@array@af@@QEBA_NXZ
; public: bool __cdecl af::array::isinteger(void)const __ptr64 
?isinteger@array@af@@QEBA_NXZ
; public: bool __cdecl af::array::array_proxy::isinteger(void)const __ptr64 
?isinteger@array_proxy@array@af@@QEBA_NXZ
; public: bool __cdecl af::array::isreal(void)const __ptr64 
?isreal@array@af@@QEBA_NXZ
; public: bool __cdecl af::array::array_proxy::isreal(void)const __ptr64 
?isreal@array_proxy@array@af@@QEBA_NXZ
; public: bool __cdecl af::array::isrealfloating(void)const __ptr64 
?isrealfloating@array@af@@QEBA_NXZ
; public: bool __cdecl af::array::array_proxy::isrealfloating(void)const __ptr64 
?isrealfloating@array_proxy@array@af@@QEBA_NXZ
; public: bool __cdecl af::array::isrow(void)const __ptr64 
?isrow@array@af@@QEBA_NXZ
; public: bool __cdecl af::array::array_proxy::isrow(void)const __ptr64 
?isrow@array_proxy@array@af@@QEBA_NXZ
; public: bool __cdecl af::array::isscalar(void)const __ptr64 
?isscalar@array@af@@QEBA_NXZ
; public: bool __cdecl af::array::array_proxy::isscalar(void)const __ptr64 
?isscalar@array_proxy@array@af@@QEBA_NXZ
; public: bool __cdecl af::array::issingle(void)const __ptr64 
?issingle@array@af@@QEBA_NXZ
; public: bool __cdecl af::array::array_proxy::issingle(void)const __ptr64 
?issingle@array_proxy@array@af@@QEBA_NXZ
; public: bool __cdecl af::index::isspan(void)const __ptr64 
?isspan@index@af@@QEBA_NXZ
; public: bool __cdecl af::array::issparse(void)const __ptr64 
?issparse@array@af@@QEBA_NXZ
; public: bool __cdecl af::array::array_proxy::issparse(void)const __ptr64 
?issparse@array_proxy@array@af@@QEBA_NXZ
; public: bool __cdecl af::array::isvector(void)const __ptr64 
?isvector@array@af@@QEBA_NXZ
; public: bool __cdecl af::array::array_proxy::isvector(void)const __ptr64 
?isvector@array_proxy@array@af@@QEBA_NXZ
; class af::array __cdecl af::iszero(class af::array const &__ptr64 )
?iszero@af@@YA?AVarray@1@AEBV21@@Z
; class af::array __cdecl af::iterativeDeconv(class af::array const &__ptr64 ,class af::array const &__ptr64 ,unsigned int,float,enum af_iterative_deconv_algo)
?iterativeDeconv@af@@YA?AVarray@1@AEBV21@0IMW4af_iterative_deconv_algo@@@Z
; class af::array __cdecl af::join(int,class af::array const &__ptr64 ,class af::array const &__ptr64 ,class af::array const &__ptr64 ,class af::array const &__ptr64 )
?join@af@@YA?AVarray@1@HAEBV21@000@Z
; class af::array __cdecl af::join(int,class af::array const &__ptr64 ,class af::array const &__ptr64 ,class af::array const &__ptr64 )
?join@af@@YA?AVarray@1@HAEBV21@00@Z
; class af::array __cdecl af::join(int,class af::array const &__ptr64 ,class af::array const &__ptr64 )
?join@af@@YA?AVarray@1@HAEBV21@0@Z
; class af::array __cdecl af::lgamma(class af::array const &__ptr64 )
?lgamma@af@@YA?AVarray@1@AEBV21@@Z
; class af::array __cdecl af::loadImage(char const *__ptr64,bool)
?loadImage@af@@YA?AVarray@1@PEBD_N@Z
; class af::array __cdecl af::loadImageMem(void const *__ptr64)
?loadImageMem@af@@YA?AVarray@1@PEBX@Z
; class af::array __cdecl af::loadImageNative(char const *__ptr64)
?loadImageNative@af@@YA?AVarray@1@PEBD@Z
; class af::array __cdecl af::loadimage(char const *__ptr64,bool)
?loadimage@af@@YA?AVarray@1@PEBD_N@Z
; public: void __cdecl af::array::lock(void)const __ptr64 
?lock@array@af@@QEBAXXZ
; public: void __cdecl af::array::array_proxy::lock(void)const __ptr64 
?lock@array_proxy@array@af@@QEBAXXZ
; class af::array __cdecl af::log10(class af::array const &__ptr64 )
?log10@af@@YA?AVarray@1@AEBV21@@Z
; class af::array __cdecl af::log1p(class af::array const &__ptr64 )
?log1p@af@@YA?AVarray@1@AEBV21@@Z
; class af::array __cdecl af::log2(class af::array const &__ptr64 )
?log2@af@@YA?AVarray@1@AEBV21@@Z
; class af::array __cdecl af::log(class af::array const &__ptr64 )
?log@af@@YA?AVarray@1@AEBV21@@Z
; class af::array __cdecl af::lookup(class af::array const &__ptr64 ,class af::array const &__ptr64 ,int)
?lookup@af@@YA?AVarray@1@AEBV21@0H@Z
; class af::array __cdecl af::lower(class af::array const &__ptr64 ,bool)
?lower@af@@YA?AVarray@1@AEBV21@_N@Z
; void __cdecl af::lu(class af::array &__ptr64 ,class af::array &__ptr64 ,class af::array &__ptr64 ,class af::array const &__ptr64 )
?lu@af@@YAXAEAVarray@1@00AEBV21@@Z
; void __cdecl af::lu(class af::array &__ptr64 ,class af::array &__ptr64 ,class af::array const &__ptr64 ,bool)
?lu@af@@YAXAEAVarray@1@0AEBV21@_N@Z
; void __cdecl af::luInPlace(class af::array &__ptr64 ,class af::array &__ptr64 ,bool)
?luInPlace@af@@YAXAEAVarray@1@0_N@Z
; public: void __cdecl af::event::mark(void)__ptr64 
?mark@event@af@@QEAAXXZ
; class af::array __cdecl af::matchTemplate(class af::array const &__ptr64 ,class af::array const &__ptr64 ,enum af_match_type)
?matchTemplate@af@@YA?AVarray@1@AEBV21@0W4af_match_type@@@Z
; class af::array __cdecl af::matmul(class af::array const &__ptr64 ,class af::array const &__ptr64 ,class af::array const &__ptr64 ,class af::array const &__ptr64 )
?matmul@af@@YA?AVarray@1@AEBV21@000@Z
; class af::array __cdecl af::matmul(class af::array const &__ptr64 ,class af::array const &__ptr64 ,class af::array const &__ptr64 )
?matmul@af@@YA?AVarray@1@AEBV21@00@Z
; class af::array __cdecl af::matmul(class af::array const &__ptr64 ,class af::array const &__ptr64 ,enum af_mat_prop,enum af_mat_prop)
?matmul@af@@YA?AVarray@1@AEBV21@0W4af_mat_prop@@1@Z
; class af::array __cdecl af::matmulNT(class af::array const &__ptr64 ,class af::array const &__ptr64 )
?matmulNT@af@@YA?AVarray@1@AEBV21@0@Z
; class af::array __cdecl af::matmulTN(class af::array const &__ptr64 ,class af::array const &__ptr64 )
?matmulTN@af@@YA?AVarray@1@AEBV21@0@Z
; class af::array __cdecl af::matmulTT(class af::array const &__ptr64 ,class af::array const &__ptr64 )
?matmulTT@af@@YA?AVarray@1@AEBV21@0@Z
; class af::array __cdecl af::max(class af::array const &__ptr64 ,class af::array const &__ptr64 )
?max@af@@YA?AVarray@1@AEBV21@0@Z
; class af::array __cdecl af::max(class af::array const &__ptr64 ,int)
?max@af@@YA?AVarray@1@AEBV21@H@Z
; class af::array __cdecl af::max(class af::array const &__ptr64 ,double)
?max@af@@YA?AVarray@1@AEBV21@N@Z
; class af::array __cdecl af::max(double,class af::array const &__ptr64 )
?max@af@@YA?AVarray@1@NAEBV21@@Z
; void __cdecl af::max(class af::array &__ptr64 ,class af::array &__ptr64 ,class af::array const &__ptr64 ,class af::array const &__ptr64 ,int)
?max@af@@YAXAEAVarray@1@0AEBV21@1H@Z
; void __cdecl af::max(class af::array &__ptr64 ,class af::array &__ptr64 ,class af::array const &__ptr64 ,int)
?max@af@@YAXAEAVarray@1@0AEBV21@H@Z
; void __cdecl af::maxByKey(class af::array &__ptr64 ,class af::array &__ptr64 ,class af::array const &__ptr64 ,class af::array const &__ptr64 ,int)
?maxByKey@af@@YAXAEAVarray@1@0AEBV21@1H@Z
; class af::array __cdecl af::maxfilt(class af::array const &__ptr64 ,__int64,__int64,enum af_border_type)
?maxfilt@af@@YA?AVarray@1@AEBV21@_J1W4af_border_type@@@Z
; class af::array __cdecl af::mean(class af::array const &__ptr64 ,class af::array const &__ptr64 ,__int64)
?mean@af@@YA?AVarray@1@AEBV21@0_J@Z
; class af::array __cdecl af::mean(class af::array const &__ptr64 ,__int64)
?mean@af@@YA?AVarray@1@AEBV21@_J@Z
; class af::array __cdecl af::meanShift(class af::array const &__ptr64 ,float,float,unsigned int,bool)
?meanShift@af@@YA?AVarray@1@AEBV21@MMI_N@Z
; void __cdecl af::meanvar(class af::array &__ptr64 ,class af::array &__ptr64 ,class af::array const &__ptr64 ,class af::array const &__ptr64 ,enum af_var_bias,__int64)
?meanvar@af@@YAXAEAVarray@1@0AEBV21@1W4af_var_bias@@_J@Z
; class af::array __cdecl af::medfilt1(class af::array const &__ptr64 ,__int64,enum af_border_type)
?medfilt1@af@@YA?AVarray@1@AEBV21@_JW4af_border_type@@@Z
; class af::array __cdecl af::medfilt2(class af::array const &__ptr64 ,__int64,__int64,enum af_border_type)
?medfilt2@af@@YA?AVarray@1@AEBV21@_J1W4af_border_type@@@Z
; class af::array __cdecl af::medfilt(class af::array const &__ptr64 ,__int64,__int64,enum af_border_type)
?medfilt@af@@YA?AVarray@1@AEBV21@_J1W4af_border_type@@@Z
; class af::array __cdecl af::median(class af::array const &__ptr64 ,__int64)
?median@af@@YA?AVarray@1@AEBV21@_J@Z
; class af::array __cdecl af::min(class af::array const &__ptr64 ,class af::array const &__ptr64 )
?min@af@@YA?AVarray@1@AEBV21@0@Z
; class af::array __cdecl af::min(class af::array const &__ptr64 ,int)
?min@af@@YA?AVarray@1@AEBV21@H@Z
; class af::array __cdecl af::min(class af::array const &__ptr64 ,double)
?min@af@@YA?AVarray@1@AEBV21@N@Z
; class af::array __cdecl af::min(double,class af::array const &__ptr64 )
?min@af@@YA?AVarray@1@NAEBV21@@Z
; void __cdecl af::min(class af::array &__ptr64 ,class af::array &__ptr64 ,class af::array const &__ptr64 ,int)
?min@af@@YAXAEAVarray@1@0AEBV21@H@Z
; void __cdecl af::minByKey(class af::array &__ptr64 ,class af::array &__ptr64 ,class af::array const &__ptr64 ,class af::array const &__ptr64 ,int)
?minByKey@af@@YAXAEAVarray@1@0AEBV21@1H@Z
; class af::array __cdecl af::minfilt(class af::array const &__ptr64 ,__int64,__int64,enum af_border_type)
?minfilt@af@@YA?AVarray@1@AEBV21@_J1W4af_border_type@@@Z
; class af::array __cdecl af::mod(class af::array const &__ptr64 ,class af::array const &__ptr64 )
?mod@af@@YA?AVarray@1@AEBV21@0@Z
; class af::array __cdecl af::mod(class af::array const &__ptr64 ,double)
?mod@af@@YA?AVarray@1@AEBV21@N@Z
; class af::array __cdecl af::mod(double,class af::array const &__ptr64 )
?mod@af@@YA?AVarray@1@NAEBV21@@Z
; class af::array __cdecl af::moddims(class af::array const &__ptr64 ,class af::dim4 const &__ptr64 )
?moddims@af@@YA?AVarray@1@AEBV21@AEBVdim4@1@@Z
; class af::array __cdecl af::moddims(class af::array const &__ptr64 ,unsigned int,__int64 const *__ptr64 const)
?moddims@af@@YA?AVarray@1@AEBV21@IQEB_J@Z
; class af::array __cdecl af::moddims(class af::array const &__ptr64 ,__int64,__int64,__int64,__int64)
?moddims@af@@YA?AVarray@1@AEBV21@_J111@Z
; class af::array __cdecl af::moments(class af::array const &__ptr64 ,enum af_moment_type)
?moments@af@@YA?AVarray@1@AEBV21@W4af_moment_type@@@Z
; void __cdecl af::moments(double *__ptr64,class af::array const &__ptr64 ,enum af_moment_type)
?moments@af@@YAXPEANAEBVarray@1@W4af_moment_type@@@Z
; class af::array __cdecl af::mul(class af::array const &__ptr64 ,int)
?mul@af@@YA?AVarray@1@AEBV21@H@Z
; public: __int64 __cdecl af::dim4::ndims(void)__ptr64 
?ndims@dim4@af@@QEAA_JXZ
; public: __int64 __cdecl af::dim4::ndims(void)const __ptr64 
?ndims@dim4@af@@QEBA_JXZ
; void __cdecl af::nearestNeighbour(class af::array &__ptr64 ,class af::array &__ptr64 ,class af::array const &__ptr64 ,class af::array const &__ptr64 ,__int64,unsigned int,enum af_match_type)
?nearestNeighbour@af@@YAXAEAVarray@1@0AEBV21@1_JIW4af_match_type@@@Z
; public: int __cdecl af::array::nonzeros(void)const __ptr64 
?nonzeros@array@af@@QEBAHXZ
; double __cdecl af::norm(class af::array const &__ptr64 ,enum af_norm_type,double,double)
?norm@af@@YANAEBVarray@1@W4af_norm_type@@NN@Z
; public: unsigned int __cdecl af::array::numdims(void)const __ptr64 
?numdims@array@af@@QEBAIXZ
; public: unsigned int __cdecl af::array::array_proxy::numdims(void)const __ptr64 
?numdims@array_proxy@array@af@@QEBAIXZ
; void __cdecl af::orb(class af::features &__ptr64 ,class af::array &__ptr64 ,class af::array const &__ptr64 ,float,unsigned int,float,unsigned int,bool)
?orb@af@@YAXAEAVfeatures@1@AEAVarray@1@AEBV31@MIMI_N@Z
; class af::array __cdecl af::pad(class af::array const &__ptr64 ,class af::dim4 const &__ptr64 ,class af::dim4 const &__ptr64 ,enum af_border_type)
?pad@af@@YA?AVarray@1@AEBV21@AEBVdim4@1@1W4af_border_type@@@Z
; void *__ptr64 __cdecl af::pinned(unsigned __int64,enum af_dtype)
?pinned@af@@YAPEAX_KW4af_dtype@@@Z
; class af::array __cdecl af::pinverse(class af::array const &__ptr64 ,double,enum af_mat_prop)
?pinverse@af@@YA?AVarray@1@AEBV21@NW4af_mat_prop@@@Z
; public: void __cdecl af::Window::plot3(class af::array const &__ptr64 ,char const *__ptr64)__ptr64 
?plot3@Window@af@@QEAAXAEBVarray@2@PEBD@Z
; public: void __cdecl af::Window::plot(class af::array const &__ptr64 ,class af::array const &__ptr64 ,class af::array const &__ptr64 ,char const *__ptr64 const)__ptr64 
?plot@Window@af@@QEAAXAEBVarray@2@00QEBD@Z
; public: void __cdecl af::Window::plot(class af::array const &__ptr64 ,class af::array const &__ptr64 ,char const *__ptr64 const)__ptr64 
?plot@Window@af@@QEAAXAEBVarray@2@0QEBD@Z
; public: void __cdecl af::Window::plot(class af::array const &__ptr64 ,char const *__ptr64 const)__ptr64 
?plot@Window@af@@QEAAXAEBVarray@2@QEBD@Z
; class af::array __cdecl af::pow2(class af::array const &__ptr64 )
?pow2@af@@YA?AVarray@1@AEBV21@@Z
; class af::array __cdecl af::pow(class af::array const &__ptr64 ,class af::array const &__ptr64 )
?pow@af@@YA?AVarray@1@AEBV21@0@Z
; class af::array __cdecl af::pow(class af::array const &__ptr64 ,double)
?pow@af@@YA?AVarray@1@AEBV21@N@Z
; class af::array __cdecl af::pow(double,class af::array const &__ptr64 )
?pow@af@@YA?AVarray@1@NAEBV21@@Z
; void __cdecl af::print(char const *__ptr64,class af::array const &__ptr64 )
?print@af@@YAXPEBDAEBVarray@1@@Z
; void __cdecl af::print(char const *__ptr64,class af::array const &__ptr64 ,int)
?print@af@@YAXPEBDAEBVarray@1@H@Z
; void __cdecl af::printMemInfo(char const *__ptr64,int)
?printMemInfo@af@@YAXPEBDH@Z
; class af::array __cdecl af::product(class af::array const &__ptr64 ,int)
?product@af@@YA?AVarray@1@AEBV21@H@Z
; class af::array __cdecl af::product(class af::array const &__ptr64 ,int,double)
?product@af@@YA?AVarray@1@AEBV21@HN@Z
; void __cdecl af::productByKey(class af::array &__ptr64 ,class af::array &__ptr64 ,class af::array const &__ptr64 ,class af::array const &__ptr64 ,int)
?productByKey@af@@YAXAEAVarray@1@0AEBV21@1H@Z
; void __cdecl af::productByKey(class af::array &__ptr64 ,class af::array &__ptr64 ,class af::array const &__ptr64 ,class af::array const &__ptr64 ,int,double)
?productByKey@af@@YAXAEAVarray@1@0AEBV21@1HN@Z
; void __cdecl af::qr(class af::array &__ptr64 ,class af::array &__ptr64 ,class af::array &__ptr64 ,class af::array const &__ptr64 )
?qr@af@@YAXAEAVarray@1@00AEBV21@@Z
; void __cdecl af::qr(class af::array &__ptr64 ,class af::array &__ptr64 ,class af::array const &__ptr64 )
?qr@af@@YAXAEAVarray@1@0AEBV21@@Z
; void __cdecl af::qrInPlace(class af::array &__ptr64 ,class af::array &__ptr64 )
?qrInPlace@af@@YAXAEAVarray@1@0@Z
; class af::array __cdecl af::randn(class af::dim4 const &__ptr64 ,enum af_dtype)
?randn@af@@YA?AVarray@1@AEBVdim4@1@W4af_dtype@@@Z
; class af::array __cdecl af::randn(class af::dim4 const &__ptr64 ,enum af_dtype,class af::randomEngine &__ptr64 )
?randn@af@@YA?AVarray@1@AEBVdim4@1@W4af_dtype@@AEAVrandomEngine@1@@Z
; class af::array __cdecl af::randn(__int64,__int64,__int64,__int64,enum af_dtype)
?randn@af@@YA?AVarray@1@_J000W4af_dtype@@@Z
; class af::array __cdecl af::randn(__int64,__int64,__int64,enum af_dtype)
?randn@af@@YA?AVarray@1@_J00W4af_dtype@@@Z
; class af::array __cdecl af::randn(__int64,__int64,enum af_dtype)
?randn@af@@YA?AVarray@1@_J0W4af_dtype@@@Z
; class af::array __cdecl af::randn(__int64,enum af_dtype)
?randn@af@@YA?AVarray@1@_JW4af_dtype@@@Z
; class af::array __cdecl af::randu(class af::dim4 const &__ptr64 ,enum af_dtype)
?randu@af@@YA?AVarray@1@AEBVdim4@1@W4af_dtype@@@Z
; class af::array __cdecl af::randu(class af::dim4 const &__ptr64 ,enum af_dtype,class af::randomEngine &__ptr64 )
?randu@af@@YA?AVarray@1@AEBVdim4@1@W4af_dtype@@AEAVrandomEngine@1@@Z
; class af::array __cdecl af::randu(__int64,__int64,__int64,__int64,enum af_dtype)
?randu@af@@YA?AVarray@1@_J000W4af_dtype@@@Z
; class af::array __cdecl af::randu(__int64,__int64,__int64,enum af_dtype)
?randu@af@@YA?AVarray@1@_J00W4af_dtype@@@Z
; class af::array __cdecl af::randu(__int64,__int64,enum af_dtype)
?randu@af@@YA?AVarray@1@_J0W4af_dtype@@@Z
; class af::array __cdecl af::randu(__int64,enum af_dtype)
?randu@af@@YA?AVarray@1@_JW4af_dtype@@@Z
; class af::array __cdecl af::range(class af::dim4 const &__ptr64 ,int,enum af_dtype)
?range@af@@YA?AVarray@1@AEBVdim4@1@HW4af_dtype@@@Z
; class af::array __cdecl af::range(__int64,__int64,__int64,__int64,int,enum af_dtype)
?range@af@@YA?AVarray@1@_J000HW4af_dtype@@@Z
; unsigned int __cdecl af::rank(class af::array const &__ptr64 ,double)
?rank@af@@YAIAEBVarray@1@N@Z
; class af::array __cdecl af::readArray(char const *__ptr64,char const *__ptr64)
?readArray@af@@YA?AVarray@1@PEBD0@Z
; class af::array __cdecl af::readArray(char const *__ptr64,unsigned int)
?readArray@af@@YA?AVarray@1@PEBDI@Z
; int __cdecl af::readArrayCheck(char const *__ptr64,char const *__ptr64)
?readArrayCheck@af@@YAHPEBD0@Z
; class af::array __cdecl af::real(class af::array const &__ptr64 )
?real@af@@YA?AVarray@1@AEBV21@@Z
; float __cdecl af::real(struct af::af_cfloat)
?real@af@@YAMUaf_cfloat@1@@Z
; double __cdecl af::real(struct af::af_cdouble)
?real@af@@YANUaf_cdouble@1@@Z
; class af::array __cdecl af::regions(class af::array const &__ptr64 ,enum af_connectivity,enum af_dtype)
?regions@af@@YA?AVarray@1@AEBV21@W4af_connectivity@@W4af_dtype@@@Z
; class af::array __cdecl af::rem(class af::array const &__ptr64 ,class af::array const &__ptr64 )
?rem@af@@YA?AVarray@1@AEBV21@0@Z
; class af::array __cdecl af::rem(class af::array const &__ptr64 ,double)
?rem@af@@YA?AVarray@1@AEBV21@N@Z
; class af::array __cdecl af::rem(double,class af::array const &__ptr64 )
?rem@af@@YA?AVarray@1@NAEBV21@@Z
; class af::array __cdecl af::reorder(class af::array const &__ptr64 ,unsigned int,unsigned int,unsigned int,unsigned int)
?reorder@af@@YA?AVarray@1@AEBV21@IIII@Z
; void __cdecl af::replace(class af::array &__ptr64 ,class af::array const &__ptr64 ,class af::array const &__ptr64 )
?replace@af@@YAXAEAVarray@1@AEBV21@1@Z
; void __cdecl af::replace(class af::array &__ptr64 ,class af::array const &__ptr64 ,double const &__ptr64 )
?replace@af@@YAXAEAVarray@1@AEBV21@AEBN@Z
; void __cdecl af::replace(class af::array &__ptr64 ,class af::array const &__ptr64 ,__int64)
?replace@af@@YAXAEAVarray@1@AEBV21@_J@Z
; void __cdecl af::replace(class af::array &__ptr64 ,class af::array const &__ptr64 ,unsigned __int64)
?replace@af@@YAXAEAVarray@1@AEBV21@_K@Z
; class af::array __cdecl af::resize(class af::array const &__ptr64 ,__int64,__int64,enum af_interp_type)
?resize@af@@YA?AVarray@1@AEBV21@_J1W4af_interp_type@@@Z
; class af::array __cdecl af::resize(float,class af::array const &__ptr64 ,enum af_interp_type)
?resize@af@@YA?AVarray@1@MAEBV21@W4af_interp_type@@@Z
; class af::array __cdecl af::resize(float,float,class af::array const &__ptr64 ,enum af_interp_type)
?resize@af@@YA?AVarray@1@MMAEBV21@W4af_interp_type@@@Z
; class af::array __cdecl af::rgb2gray(class af::array const &__ptr64 ,float,float,float)
?rgb2gray@af@@YA?AVarray@1@AEBV21@MMM@Z
; class af::array __cdecl af::rgb2hsv(class af::array const &__ptr64 )
?rgb2hsv@af@@YA?AVarray@1@AEBV21@@Z
; class af::array __cdecl af::rgb2ycbcr(class af::array const &__ptr64 ,enum af_ycc_std)
?rgb2ycbcr@af@@YA?AVarray@1@AEBV21@W4af_ycc_std@@@Z
; class af::array __cdecl af::root(class af::array const &__ptr64 ,class af::array const &__ptr64 )
?root@af@@YA?AVarray@1@AEBV21@0@Z
; class af::array __cdecl af::root(class af::array const &__ptr64 ,double)
?root@af@@YA?AVarray@1@AEBV21@N@Z
; class af::array __cdecl af::root(double,class af::array const &__ptr64 )
?root@af@@YA?AVarray@1@NAEBV21@@Z
; class af::array __cdecl af::rotate(class af::array const &__ptr64 ,float,bool,enum af_interp_type)
?rotate@af@@YA?AVarray@1@AEBV21@M_NW4af_interp_type@@@Z
; class af::array __cdecl af::round(class af::array const &__ptr64 )
?round@af@@YA?AVarray@1@AEBV21@@Z
; public: class af::array::array_proxy __cdecl af::array::row(int)__ptr64 
?row@array@af@@QEAA?AVarray_proxy@12@H@Z
; public: class af::array::array_proxy const __cdecl af::array::row(int)const __ptr64 
?row@array@af@@QEBA?BVarray_proxy@12@H@Z
; public: class af::array::array_proxy __cdecl af::array::array_proxy::row(int)__ptr64 
?row@array_proxy@array@af@@QEAA?AV123@H@Z
; public: class af::array::array_proxy const __cdecl af::array::array_proxy::row(int)const __ptr64 
?row@array_proxy@array@af@@QEBA?BV123@H@Z
; public: class af::array::array_proxy __cdecl af::array::rows(int,int)__ptr64 
?rows@array@af@@QEAA?AVarray_proxy@12@HH@Z
; public: class af::array::array_proxy const __cdecl af::array::rows(int,int)const __ptr64 
?rows@array@af@@QEBA?BVarray_proxy@12@HH@Z
; public: class af::array::array_proxy __cdecl af::array::array_proxy::rows(int,int)__ptr64 
?rows@array_proxy@array@af@@QEAA?AV123@HH@Z
; public: class af::array::array_proxy const __cdecl af::array::array_proxy::rows(int,int)const __ptr64 
?rows@array_proxy@array@af@@QEBA?BV123@HH@Z
; class af::array __cdecl af::rsqrt(class af::array const &__ptr64 )
?rsqrt@af@@YA?AVarray@1@AEBV21@@Z
; class af::array __cdecl af::sat(class af::array const &__ptr64 )
?sat@af@@YA?AVarray@1@AEBV21@@Z
; int __cdecl af::saveArray(char const *__ptr64,class af::array const &__ptr64 ,char const *__ptr64,bool)
?saveArray@af@@YAHPEBDAEBVarray@1@0_N@Z
; void __cdecl af::saveImage(char const *__ptr64,class af::array const &__ptr64 )
?saveImage@af@@YAXPEBDAEBVarray@1@@Z
; void *__ptr64 __cdecl af::saveImageMem(class af::array const &__ptr64 ,enum af_image_format)
?saveImageMem@af@@YAPEAXAEBVarray@1@W4af_image_format@@@Z
; void __cdecl af::saveImageNative(char const *__ptr64,class af::array const &__ptr64 )
?saveImageNative@af@@YAXPEBDAEBVarray@1@@Z
; void __cdecl af::saveimage(char const *__ptr64,class af::array const &__ptr64 )
?saveimage@af@@YAXPEBDAEBVarray@1@@Z
; class af::array __cdecl af::scale(class af::array const &__ptr64 ,float,float,__int64,__int64,enum af_interp_type)
?scale@af@@YA?AVarray@1@AEBV21@MM_J1W4af_interp_type@@@Z
; class af::array __cdecl af::scan(class af::array const &__ptr64 ,int,enum af_binary_op,bool)
?scan@af@@YA?AVarray@1@AEBV21@HW4af_binary_op@@_N@Z
; class af::array __cdecl af::scanByKey(class af::array const &__ptr64 ,class af::array const &__ptr64 ,int,enum af_binary_op,bool)
?scanByKey@af@@YA?AVarray@1@AEBV21@0HW4af_binary_op@@_N@Z
; public: void __cdecl af::Window::scatter3(class af::array const &__ptr64 ,enum af_marker_type,char const *__ptr64 const)__ptr64 
?scatter3@Window@af@@QEAAXAEBVarray@2@W4af_marker_type@@QEBD@Z
; public: void __cdecl af::Window::scatter(class af::array const &__ptr64 ,class af::array const &__ptr64 ,class af::array const &__ptr64 ,enum af_marker_type,char const *__ptr64 const)__ptr64 
?scatter@Window@af@@QEAAXAEBVarray@2@00W4af_marker_type@@QEBD@Z
; public: void __cdecl af::Window::scatter(class af::array const &__ptr64 ,class af::array const &__ptr64 ,enum af_marker_type,char const *__ptr64 const)__ptr64 
?scatter@Window@af@@QEAAXAEBVarray@2@0W4af_marker_type@@QEBD@Z
; public: void __cdecl af::Window::scatter(class af::array const &__ptr64 ,enum af_marker_type,char const *__ptr64 const)__ptr64 
?scatter@Window@af@@QEAAXAEBVarray@2@W4af_marker_type@@QEBD@Z
; class af::array __cdecl af::select(class af::array const &__ptr64 ,class af::array const &__ptr64 ,class af::array const &__ptr64 )
?select@af@@YA?AVarray@1@AEBV21@00@Z
; class af::array __cdecl af::select(class af::array const &__ptr64 ,class af::array const &__ptr64 ,double const &__ptr64 )
?select@af@@YA?AVarray@1@AEBV21@0AEBN@Z
; class af::array __cdecl af::select(class af::array const &__ptr64 ,class af::array const &__ptr64 ,__int64)
?select@af@@YA?AVarray@1@AEBV21@0_J@Z
; class af::array __cdecl af::select(class af::array const &__ptr64 ,class af::array const &__ptr64 ,unsigned __int64)
?select@af@@YA?AVarray@1@AEBV21@0_K@Z
; class af::array __cdecl af::select(class af::array const &__ptr64 ,double const &__ptr64 ,class af::array const &__ptr64 )
?select@af@@YA?AVarray@1@AEBV21@AEBN0@Z
; class af::array __cdecl af::select(class af::array const &__ptr64 ,__int64,class af::array const &__ptr64 )
?select@af@@YA?AVarray@1@AEBV21@_J0@Z
; class af::array __cdecl af::select(class af::array const &__ptr64 ,unsigned __int64,class af::array const &__ptr64 )
?select@af@@YA?AVarray@1@AEBV21@_K0@Z
; unsigned __int64 __cdecl af::seqElements(struct af_seq const &__ptr64 )
?seqElements@af@@YA_KAEBUaf_seq@@@Z
; public: void __cdecl af::array::set(void *__ptr64)__ptr64 
?set@array@af@@QEAAXPEAX@Z
; public: void __cdecl af::Window::setAxesLabelFormat(char const *__ptr64 const,char const *__ptr64 const,char const *__ptr64 const)__ptr64 
?setAxesLabelFormat@Window@af@@QEAAXQEBD00@Z
; public: void __cdecl af::Window::setAxesLimits(class af::array const &__ptr64 ,class af::array const &__ptr64 ,class af::array const &__ptr64 ,bool)__ptr64 
?setAxesLimits@Window@af@@QEAAXAEBVarray@2@00_N@Z
; public: void __cdecl af::Window::setAxesLimits(class af::array const &__ptr64 ,class af::array const &__ptr64 ,bool)__ptr64 
?setAxesLimits@Window@af@@QEAAXAEBVarray@2@0_N@Z
; public: void __cdecl af::Window::setAxesLimits(float,float,float,float,float,float,bool)__ptr64 
?setAxesLimits@Window@af@@QEAAXMMMMMM_N@Z
; public: void __cdecl af::Window::setAxesLimits(float,float,float,float,bool)__ptr64 
?setAxesLimits@Window@af@@QEAAXMMMM_N@Z
; public: void __cdecl af::Window::setAxesTitles(char const *__ptr64 const,char const *__ptr64 const,char const *__ptr64 const)__ptr64 
?setAxesTitles@Window@af@@QEAAXQEBD00@Z
; void __cdecl af::setBackend(enum af_backend)
?setBackend@af@@YAXW4af_backend@@@Z
; public: void __cdecl af::Window::setColorMap(enum af_colormap)__ptr64 
?setColorMap@Window@af@@QEAAXW4af_colormap@@@Z
; void __cdecl af::setDefaultRandomEngineType(enum af_random_engine_type)
?setDefaultRandomEngineType@af@@YAXW4af_random_engine_type@@@Z
; void __cdecl af::setDevice(int)
?setDevice@af@@YAXH@Z
; void __cdecl af::setFFTPlanCacheSize(unsigned __int64)
?setFFTPlanCacheSize@af@@YAX_K@Z
; class af::array __cdecl af::setIntersect(class af::array const &__ptr64 ,class af::array const &__ptr64 ,bool)
?setIntersect@af@@YA?AVarray@1@AEBV21@0_N@Z
; void __cdecl af::setManualEvalFlag(bool)
?setManualEvalFlag@af@@YAX_N@Z
; void __cdecl af::setMaxJitLen(int)
?setMaxJitLen@af@@YAXH@Z
; void __cdecl af::setMemStepSize(unsigned __int64)
?setMemStepSize@af@@YAX_K@Z
; public: void __cdecl af::Window::setPos(unsigned int,unsigned int)__ptr64 
?setPos@Window@af@@QEAAXII@Z
; void __cdecl af::setSeed(unsigned __int64)
?setSeed@af@@YAX_K@Z
; public: void __cdecl af::randomEngine::setSeed(unsigned __int64)__ptr64 
?setSeed@randomEngine@af@@QEAAX_K@Z
; public: void __cdecl af::Window::setSize(unsigned int,unsigned int)__ptr64 
?setSize@Window@af@@QEAAXII@Z
; public: void __cdecl af::Window::setTitle(char const *__ptr64 const)__ptr64 
?setTitle@Window@af@@QEAAXQEBD@Z
; public: void __cdecl af::randomEngine::setType(enum af_random_engine_type)__ptr64 
?setType@randomEngine@af@@QEAAXW4af_random_engine_type@@@Z
; class af::array __cdecl af::setUnion(class af::array const &__ptr64 ,class af::array const &__ptr64 ,bool)
?setUnion@af@@YA?AVarray@1@AEBV21@0_N@Z
; class af::array __cdecl af::setUnique(class af::array const &__ptr64 ,bool)
?setUnique@af@@YA?AVarray@1@AEBV21@_N@Z
; public: void __cdecl af::Window::setVisibility(bool)__ptr64 
?setVisibility@Window@af@@QEAAX_N@Z
; class af::array __cdecl af::setintersect(class af::array const &__ptr64 ,class af::array const &__ptr64 ,bool)
?setintersect@af@@YA?AVarray@1@AEBV21@0_N@Z
; class af::array __cdecl af::setunion(class af::array const &__ptr64 ,class af::array const &__ptr64 ,bool)
?setunion@af@@YA?AVarray@1@AEBV21@0_N@Z
; class af::array __cdecl af::setunique(class af::array const &__ptr64 ,bool)
?setunique@af@@YA?AVarray@1@AEBV21@_N@Z
; class af::array __cdecl af::shift(class af::array const &__ptr64 ,int,int,int,int)
?shift@af@@YA?AVarray@1@AEBV21@HHHH@Z
; public: void __cdecl af::Window::show(void)__ptr64 
?show@Window@af@@QEAAXXZ
; void __cdecl af::sift(class af::features &__ptr64 ,class af::array &__ptr64 ,class af::array const &__ptr64 ,unsigned int,float,float,float,bool,float,float)
?sift@af@@YAXAEAVfeatures@1@AEAVarray@1@AEBV31@IMMM_NMM@Z
; class af::array __cdecl af::sigmoid(class af::array const &__ptr64 )
?sigmoid@af@@YA?AVarray@1@AEBV21@@Z
; class af::array __cdecl af::sign(class af::array const &__ptr64 )
?sign@af@@YA?AVarray@1@AEBV21@@Z
; class af::array __cdecl af::sin(class af::array const &__ptr64 )
?sin@af@@YA?AVarray@1@AEBV21@@Z
; class af::array __cdecl af::sinh(class af::array const &__ptr64 )
?sinh@af@@YA?AVarray@1@AEBV21@@Z
; class af::array __cdecl af::skew(class af::array const &__ptr64 ,float,float,__int64,__int64,bool,enum af_interp_type)
?skew@af@@YA?AVarray@1@AEBV21@MM_J1_NW4af_interp_type@@@Z
; public: class af::array::array_proxy __cdecl af::array::slice(int)__ptr64 
?slice@array@af@@QEAA?AVarray_proxy@12@H@Z
; public: class af::array::array_proxy const __cdecl af::array::slice(int)const __ptr64 
?slice@array@af@@QEBA?BVarray_proxy@12@H@Z
; public: class af::array::array_proxy __cdecl af::array::array_proxy::slice(int)__ptr64 
?slice@array_proxy@array@af@@QEAA?AV123@H@Z
; public: class af::array::array_proxy const __cdecl af::array::array_proxy::slice(int)const __ptr64 
?slice@array_proxy@array@af@@QEBA?BV123@H@Z
; public: class af::array::array_proxy __cdecl af::array::slices(int,int)__ptr64 
?slices@array@af@@QEAA?AVarray_proxy@12@HH@Z
; public: class af::array::array_proxy const __cdecl af::array::slices(int,int)const __ptr64 
?slices@array@af@@QEBA?BVarray_proxy@12@HH@Z
; public: class af::array::array_proxy __cdecl af::array::array_proxy::slices(int,int)__ptr64 
?slices@array_proxy@array@af@@QEAA?AV123@HH@Z
; public: class af::array::array_proxy const __cdecl af::array::array_proxy::slices(int,int)const __ptr64 
?slices@array_proxy@array@af@@QEBA?BV123@HH@Z
; class af::array __cdecl af::sobel(class af::array const &__ptr64 ,unsigned int,bool)
?sobel@af@@YA?AVarray@1@AEBV21@I_N@Z
; void __cdecl af::sobel(class af::array &__ptr64 ,class af::array &__ptr64 ,class af::array const &__ptr64 ,unsigned int)
?sobel@af@@YAXAEAVarray@1@0AEBV21@I@Z
; class af::array __cdecl af::solve(class af::array const &__ptr64 ,class af::array const &__ptr64 ,enum af_mat_prop)
?solve@af@@YA?AVarray@1@AEBV21@0W4af_mat_prop@@@Z
; class af::array __cdecl af::solveLU(class af::array const &__ptr64 ,class af::array const &__ptr64 ,class af::array const &__ptr64 ,enum af_mat_prop)
?solveLU@af@@YA?AVarray@1@AEBV21@00W4af_mat_prop@@@Z
; class af::array __cdecl af::sort(class af::array const &__ptr64 ,unsigned int,bool)
?sort@af@@YA?AVarray@1@AEBV21@I_N@Z
; void __cdecl af::sort(class af::array &__ptr64 ,class af::array &__ptr64 ,class af::array const &__ptr64 ,class af::array const &__ptr64 ,unsigned int,bool)
?sort@af@@YAXAEAVarray@1@0AEBV21@1I_N@Z
; void __cdecl af::sort(class af::array &__ptr64 ,class af::array &__ptr64 ,class af::array const &__ptr64 ,unsigned int,bool)
?sort@af@@YAXAEAVarray@1@0AEBV21@I_N@Z
; class af::seq af::span
?span@af@@3Vseq@1@A DATA
; class af::array __cdecl af::sparse(class af::array,enum af_storage)
?sparse@af@@YA?AVarray@1@V21@W4af_storage@@@Z
; class af::array __cdecl af::sparse(__int64,__int64,__int64,void const *__ptr64 const,int const *__ptr64 const,int const *__ptr64 const,enum af_dtype,enum af_storage,enum af_source)
?sparse@af@@YA?AVarray@1@_J00QEBXQEBH2W4af_dtype@@W4af_storage@@W4af_source@@@Z
; class af::array __cdecl af::sparse(__int64,__int64,class af::array,class af::array,class af::array,enum af_storage)
?sparse@af@@YA?AVarray@1@_J0V21@11W4af_storage@@@Z
; class af::array __cdecl af::sparseConvertTo(class af::array,enum af_storage)
?sparseConvertTo@af@@YA?AVarray@1@V21@W4af_storage@@@Z
; class af::array __cdecl af::sparseGetColIdx(class af::array)
?sparseGetColIdx@af@@YA?AVarray@1@V21@@Z
; void __cdecl af::sparseGetInfo(class af::array &__ptr64 ,class af::array &__ptr64 ,class af::array &__ptr64 ,enum af_storage &__ptr64 ,class af::array)
?sparseGetInfo@af@@YAXAEAVarray@1@00AEAW4af_storage@@V21@@Z
; __int64 __cdecl af::sparseGetNNZ(class af::array)
?sparseGetNNZ@af@@YA_JVarray@1@@Z
; class af::array __cdecl af::sparseGetRowIdx(class af::array)
?sparseGetRowIdx@af@@YA?AVarray@1@V21@@Z
; enum af_storage __cdecl af::sparseGetStorage(class af::array)
?sparseGetStorage@af@@YA?AW4af_storage@@Varray@1@@Z
; class af::array __cdecl af::sparseGetValues(class af::array)
?sparseGetValues@af@@YA?AVarray@1@V21@@Z
; class af::array __cdecl af::sqrt(class af::array const &__ptr64 )
?sqrt@af@@YA?AVarray@1@AEBV21@@Z
; public: static struct af::timer __cdecl af::timer::start(void)
?start@timer@af@@SA?AU12@XZ
; class af::array __cdecl af::stdev(class af::array const &__ptr64 ,enum af_var_bias,__int64)
?stdev@af@@YA?AVarray@1@AEBV21@W4af_var_bias@@_J@Z
; class af::array __cdecl af::stdev(class af::array const &__ptr64 ,__int64)
?stdev@af@@YA?AVarray@1@AEBV21@_J@Z
; public: static double __cdecl af::timer::stop(struct af::timer)
?stop@timer@af@@SANU12@@Z
; public: static double __cdecl af::timer::stop(void)
?stop@timer@af@@SANXZ
; class af::array __cdecl af::sum(class af::array const &__ptr64 ,int)
?sum@af@@YA?AVarray@1@AEBV21@H@Z
; class af::array __cdecl af::sum(class af::array const &__ptr64 ,int,double)
?sum@af@@YA?AVarray@1@AEBV21@HN@Z
; void __cdecl af::sumByKey(class af::array &__ptr64 ,class af::array &__ptr64 ,class af::array const &__ptr64 ,class af::array const &__ptr64 ,int)
?sumByKey@af@@YAXAEAVarray@1@0AEBV21@1H@Z
; void __cdecl af::sumByKey(class af::array &__ptr64 ,class af::array &__ptr64 ,class af::array const &__ptr64 ,class af::array const &__ptr64 ,int,double)
?sumByKey@af@@YAXAEAVarray@1@0AEBV21@1HN@Z
; public: void __cdecl af::Window::surface(class af::array const &__ptr64 ,class af::array const &__ptr64 ,class af::array const &__ptr64 ,char const *__ptr64 const)__ptr64 
?surface@Window@af@@QEAAXAEBVarray@2@00QEBD@Z
; public: void __cdecl af::Window::surface(class af::array const &__ptr64 ,char const *__ptr64 const)__ptr64 
?surface@Window@af@@QEAAXAEBVarray@2@QEBD@Z
; class af::features __cdecl af::susan(class af::array const &__ptr64 ,unsigned int,float,float,float,unsigned int)
?susan@af@@YA?AVfeatures@1@AEBVarray@1@IMMMI@Z
; void __cdecl af::svd(class af::array &__ptr64 ,class af::array &__ptr64 ,class af::array &__ptr64 ,class af::array const &__ptr64 )
?svd@af@@YAXAEAVarray@1@00AEBV21@@Z
; void __cdecl af::svdInPlace(class af::array &__ptr64 ,class af::array &__ptr64 ,class af::array &__ptr64 ,class af::array &__ptr64 )
?svdInPlace@af@@YAXAEAVarray@1@000@Z
; void __cdecl af::sync(int)
?sync@af@@YAXH@Z
; class af::array __cdecl af::tan(class af::array const &__ptr64 )
?tan@af@@YA?AVarray@1@AEBV21@@Z
; class af::array __cdecl af::tanh(class af::array const &__ptr64 )
?tanh@af@@YA?AVarray@1@AEBV21@@Z
; class af::array __cdecl af::tgamma(class af::array const &__ptr64 )
?tgamma@af@@YA?AVarray@1@AEBV21@@Z
; class af::array __cdecl af::tile(class af::array const &__ptr64 ,class af::dim4 const &__ptr64 )
?tile@af@@YA?AVarray@1@AEBV21@AEBVdim4@1@@Z
; class af::array __cdecl af::tile(class af::array const &__ptr64 ,unsigned int,unsigned int,unsigned int,unsigned int)
?tile@af@@YA?AVarray@1@AEBV21@IIII@Z
; double __cdecl af::timeit(void(__cdecl *)(void))
?timeit@af@@YANP6AXXZ@Z
; char const *__ptr64 __cdecl af::toString(char const *__ptr64,class af::array const &__ptr64 ,int,bool)
?toString@af@@YAPEBDPEBDAEBVarray@1@H_N@Z
; void __cdecl af::toString(char *__ptr64 *__ptr64,char const *__ptr64,class af::array const &__ptr64 ,int,bool)
?toString@af@@YAXPEAPEADPEBDAEBVarray@1@H_N@Z
; void __cdecl af::topk(class af::array &__ptr64 ,class af::array &__ptr64 ,class af::array const &__ptr64 ,int,int,enum af_topk_function)
?topk@af@@YAXAEAVarray@1@0AEBV21@HHW4af_topk_function@@@Z
; class af::array __cdecl af::transform(class af::array const &__ptr64 ,class af::array const &__ptr64 ,__int64,__int64,enum af_interp_type,bool)
?transform@af@@YA?AVarray@1@AEBV21@0_J1W4af_interp_type@@_N@Z
; class af::array __cdecl af::transformCoordinates(class af::array const &__ptr64 ,float,float)
?transformCoordinates@af@@YA?AVarray@1@AEBV21@MM@Z
; class af::array __cdecl af::translate(class af::array const &__ptr64 ,float,float,__int64,__int64,enum af_interp_type)
?translate@af@@YA?AVarray@1@AEBV21@MM_J1W4af_interp_type@@@Z
; class af::array __cdecl af::transpose(class af::array const &__ptr64 ,bool)
?transpose@af@@YA?AVarray@1@AEBV21@_N@Z
; void __cdecl af::transposeInPlace(class af::array &__ptr64 ,bool)
?transposeInPlace@af@@YAXAEAVarray@1@_N@Z
; class af::array __cdecl af::trunc(class af::array const &__ptr64 )
?trunc@af@@YA?AVarray@1@AEBV21@@Z
; public: enum af_dtype __cdecl af::array::type(void)const __ptr64 
?type@array@af@@QEBA?AW4af_dtype@@XZ
; public: enum af_dtype __cdecl af::array::array_proxy::type(void)const __ptr64 
?type@array_proxy@array@af@@QEBA?AW4af_dtype@@XZ
; public: void __cdecl af::array::unlock(void)const __ptr64 
?unlock@array@af@@QEBAXXZ
; public: void __cdecl af::array::array_proxy::unlock(void)const __ptr64 
?unlock@array_proxy@array@af@@QEBAXXZ
; class af::array __cdecl af::unwrap(class af::array const &__ptr64 ,__int64,__int64,__int64,__int64,__int64,__int64,bool)
?unwrap@af@@YA?AVarray@1@AEBV21@_J11111_N@Z
; class af::array __cdecl af::upper(class af::array const &__ptr64 ,bool)
?upper@af@@YA?AVarray@1@AEBV21@_N@Z
; class af::array __cdecl af::var(class af::array const &__ptr64 ,class af::array const &__ptr64 ,__int64)
?var@af@@YA?AVarray@1@AEBV21@0_J@Z
; class af::array __cdecl af::var(class af::array const &__ptr64 ,enum af_var_bias,__int64)
?var@af@@YA?AVarray@1@AEBV21@W4af_var_bias@@_J@Z
; class af::array __cdecl af::var(class af::array const &__ptr64 ,bool,__int64)
?var@af@@YA?AVarray@1@AEBV21@_N_J@Z
; public: void __cdecl af::Window::vectorField(class af::array const &__ptr64 ,class af::array const &__ptr64 ,class af::array const &__ptr64 ,class af::array const &__ptr64 ,class af::array const &__ptr64 ,class af::array const &__ptr64 ,char const *__ptr64 const)__ptr64 
?vectorField@Window@af@@QEAAXAEBVarray@2@00000QEBD@Z
; public: void __cdecl af::Window::vectorField(class af::array const &__ptr64 ,class af::array const &__ptr64 ,class af::array const &__ptr64 ,class af::array const &__ptr64 ,char const *__ptr64 const)__ptr64 
?vectorField@Window@af@@QEAAXAEBVarray@2@000QEBD@Z
; public: void __cdecl af::Window::vectorField(class af::array const &__ptr64 ,class af::array const &__ptr64 ,char const *__ptr64 const)__ptr64 
?vectorField@Window@af@@QEAAXAEBVarray@2@0QEBD@Z
; public: virtual char const *__ptr64 __cdecl af::exception::what(void)const __ptr64 
?what@exception@af@@UEBAPEBDXZ
; class af::array __cdecl af::where(class af::array const &__ptr64 )
?where@af@@YA?AVarray@1@AEBV21@@Z
; class af::array __cdecl af::wrap(class af::array const &__ptr64 ,__int64,__int64,__int64,__int64,__int64,__int64,__int64,__int64,bool)
?wrap@af@@YA?AVarray@1@AEBV21@_J1111111_N@Z
; class af::array __cdecl af::ycbcr2rgb(class af::array const &__ptr64 ,enum af_ycc_std)
?ycbcr2rgb@af@@YA?AVarray@1@AEBV21@W4af_ycc_std@@@Z
af_abs
af_accum
af_acos
af_acosh
af_add
af_all_true
af_all_true_all
af_all_true_all_array
af_all_true_by_key
af_alloc_device
af_alloc_device_v2
af_alloc_host
af_alloc_pinned
af_and
af_anisotropic_diffusion
af_any_true
af_any_true_all
af_any_true_all_array
af_any_true_by_key
af_approx1
af_approx1_uniform
af_approx1_uniform_v2
af_approx1_v2
af_approx2
af_approx2_uniform
af_approx2_uniform_v2
af_approx2_v2
af_arg
af_array_to_string
af_asin
af_asinh
af_assign_gen
af_assign_seq
af_atan
af_atan2
af_atanh
af_bilateral
af_bitand
af_bitnot
af_bitor
af_bitshiftl
af_bitshiftr
af_bitxor
af_block_event
af_canny
af_cast
af_cbrt
af_ceil
af_cholesky
af_cholesky_inplace
af_clamp
af_color_space
af_confidence_cc
af_conjg
af_constant
af_constant_complex
af_constant_long
af_constant_ulong
af_convolve1
af_convolve2
af_convolve2_gradient_nn
af_convolve2_nn
af_convolve2_sep
af_convolve3
af_copy_array
af_corrcoef
af_cos
af_cosh
af_count
af_count_all
af_count_all_array
af_count_by_key
af_cov
af_cov_v2
af_cplx
af_cplx2
af_create_array
af_create_event
af_create_features
af_create_handle
af_create_indexers
af_create_memory_manager
af_create_random_engine
af_create_sparse_array
af_create_sparse_array_from_dense
af_create_sparse_array_from_ptr
af_create_strided_array
af_create_window
af_delete_event
af_delete_image_memory
af_destroy_window
af_det
af_device_array
af_device_gc
af_device_info
af_device_mem_info
af_diag_create
af_diag_extract
af_diff1
af_diff2
af_dilate
af_dilate3
af_div
af_dog
af_dot
af_dot_all
af_draw_hist
af_draw_image
af_draw_plot
af_draw_plot3
af_draw_plot_2d
af_draw_plot_3d
af_draw_plot_nd
af_draw_scatter
af_draw_scatter3
af_draw_scatter_2d
af_draw_scatter_3d
af_draw_scatter_nd
af_draw_surface
af_draw_vector_field_2d
af_draw_vector_field_3d
af_draw_vector_field_nd
af_enqueue_wait_event
af_eq
af_erf
af_erfc
af_erode
af_erode3
af_err_to_string
af_eval
af_eval_multiple
af_example_function
af_exp
af_expm1
af_factorial
af_fast
af_fft
af_fft2
af_fft2_c2r
af_fft2_inplace
af_fft2_r2c
af_fft3
af_fft3_c2r
af_fft3_inplace
af_fft3_r2c
af_fft_c2r
af_fft_convolve1
af_fft_convolve2
af_fft_convolve3
af_fft_inplace
af_fft_r2c
af_fir
af_flat
af_flip
af_floor
af_free_device
af_free_device_v2
af_free_host
af_free_pinned
af_gaussian_kernel
af_ge
af_gemm
af_get_active_backend
af_get_allocated_bytes
af_get_available_backends
af_get_backend_count
af_get_backend_id
af_get_data_ptr
af_get_data_ref_count
af_get_dbl_support
af_get_default_random_engine
af_get_device
af_get_device_count
af_get_device_id
af_get_device_ptr
af_get_dims
af_get_elements
af_get_features_num
af_get_features_orientation
af_get_features_score
af_get_features_size
af_get_features_xpos
af_get_features_ypos
af_get_half_support
af_get_kernel_cache_directory
af_get_last_error
af_get_manual_eval_flag
af_get_max_jit_len
af_get_mem_step_size
af_get_numdims
af_get_offset
af_get_raw_ptr
af_get_revision
af_get_scalar
af_get_seed
af_get_size_of
af_get_strides
af_get_type
af_get_version
af_gloh
af_gradient
af_gray2rgb
af_grid
af_gt
af_hamming_matcher
af_harris
af_hist_equal
af_histogram
af_homography
af_hsv2rgb
af_hypot
af_identity
af_ifft
af_ifft2
af_ifft2_inplace
af_ifft3
af_ifft3_inplace
af_ifft_inplace
af_iir
af_imag
af_imax
af_imax_all
af_imin
af_imin_all
af_index
af_index_gen
af_info
af_info_string
af_init
af_inverse
af_inverse_deconv
af_iota
af_is_bool
af_is_column
af_is_complex
af_is_double
af_is_empty
af_is_floating
af_is_half
af_is_image_io_available
af_is_integer
af_is_lapack_available
af_is_linear
af_is_locked_array
af_is_owner
af_is_real
af_is_realfloating
af_is_row
af_is_scalar
af_is_single
af_is_sparse
af_is_vector
af_is_window_closed
af_isinf
af_isnan
af_iszero
af_iterative_deconv
af_join
af_join_many
af_le
af_lgamma
af_load_image
af_load_image_memory
af_load_image_native
af_lock_array
af_lock_device_ptr
af_log
af_log10
af_log1p
af_log2
af_lookup
af_lower
af_lt
af_lu
af_lu_inplace
af_make_seq
af_mark_event
af_match_template
af_matmul
af_max
af_max_all
af_max_all_array
af_max_by_key
af_max_ragged
af_maxfilt
af_maxof
af_mean
af_mean_all
af_mean_all_weighted
af_mean_shift
af_mean_weighted
af_meanvar
af_medfilt
af_medfilt1
af_medfilt2
af_median
af_median_all
af_memory_manager_get_active_device_id
af_memory_manager_get_max_memory_size
af_memory_manager_get_memory_pressure_threshold
af_memory_manager_get_payload
af_memory_manager_native_alloc
af_memory_manager_native_free
af_memory_manager_set_add_memory_management_fn
af_memory_manager_set_alloc_fn
af_memory_manager_set_allocated_fn
af_memory_manager_set_get_memory_pressure_fn
af_memory_manager_set_initialize_fn
af_memory_manager_set_is_user_locked_fn
af_memory_manager_set_jit_tree_exceeds_memory_pressure_fn
af_memory_manager_set_memory_pressure_threshold
af_memory_manager_set_payload
af_memory_manager_set_print_info_fn
af_memory_manager_set_remove_memory_management_fn
af_memory_manager_set_shutdown_fn
af_memory_manager_set_signal_memory_cleanup_fn
af_memory_manager_set_unlock_fn
af_memory_manager_set_user_lock_fn
af_memory_manager_set_user_unlock_fn
af_min
af_min_all
af_min_all_array
af_min_by_key
af_minfilt
af_minof
af_mod
af_moddims
af_moments
af_moments_all
af_mul
af_nearest_neighbour
af_neq
af_norm
af_not
af_or
af_orb
af_pad
af_pinverse
af_pow
af_pow2
af_print_array
af_print_array_gen
af_print_mem_info
af_product
af_product_all
af_product_all_array
af_product_by_key
af_product_by_key_nan
af_product_nan
af_product_nan_all
af_product_nan_all_array
af_qr
af_qr_inplace
af_randn
af_random_engine_get_seed
af_random_engine_get_type
af_random_engine_set_seed
af_random_engine_set_type
af_random_normal
af_random_uniform
af_randu
af_range
af_rank
af_read_array_index
af_read_array_key
af_read_array_key_check
af_real
af_regions
af_release_array
af_release_features
af_release_indexers
af_release_memory_manager
af_release_random_engine
af_rem
af_reorder
af_replace
af_replace_scalar
af_replace_scalar_long
af_replace_scalar_ulong
af_resize
af_retain_array
af_retain_features
af_retain_random_engine
af_rgb2gray
af_rgb2hsv
af_rgb2ycbcr
af_root
af_rotate
af_round
af_rsqrt
af_sat
af_save_array
af_save_image
af_save_image_memory
af_save_image_native
af_scale
af_scan
af_scan_by_key
af_select
af_select_scalar_l
af_select_scalar_l_long
af_select_scalar_l_ulong
af_select_scalar_r
af_select_scalar_r_long
af_select_scalar_r_ulong
af_set_array_indexer
af_set_axes_label_format
af_set_axes_limits_2d
af_set_axes_limits_3d
af_set_axes_limits_compute
af_set_axes_titles
af_set_backend
af_set_default_random_engine_type
af_set_device
af_set_enable_stacktrace
af_set_fft_plan_cache_size
af_set_intersect
af_set_kernel_cache_directory
af_set_manual_eval_flag
af_set_max_jit_len
af_set_mem_step_size
af_set_memory_manager
af_set_memory_manager_pinned
af_set_position
af_set_seed
af_set_seq_indexer
af_set_seq_param_indexer
af_set_size
af_set_title
af_set_union
af_set_unique
af_set_visibility
af_shift
af_show
af_sift
af_sigmoid
af_sign
af_sin
af_sinh
af_skew
af_sobel_operator
af_solve
af_solve_lu
af_sort
af_sort_by_key
af_sort_index
af_sparse_convert_to
af_sparse_get_col_idx
af_sparse_get_info
af_sparse_get_nnz
af_sparse_get_row_idx
af_sparse_get_storage
af_sparse_get_values
af_sparse_to_dense
af_sqrt
af_stdev
af_stdev_all
af_stdev_all_v2
af_stdev_v2
af_sub
af_sum
af_sum_all
af_sum_all_array
af_sum_by_key
af_sum_by_key_nan
af_sum_nan
af_sum_nan_all
af_sum_nan_all_array
af_susan
af_svd
af_svd_inplace
af_sync
af_tan
af_tanh
af_tgamma
af_tile
af_topk
af_transform
af_transform_coordinates
af_transform_v2
af_translate
af_transpose
af_transpose_inplace
af_trunc
af_unlock_array
af_unlock_device_ptr
af_unset_memory_manager
af_unset_memory_manager_pinned
af_unwrap
af_upper
af_var
af_var_all
af_var_all_v2
af_var_all_weighted
af_var_v2
af_var_weighted
af_where
af_wrap
af_wrap_v2
af_write_array
af_ycbcr2rgb
afcl_add_device_context
afcl_delete_device_context
afcl_get_context
afcl_get_device_id
afcl_get_device_type
afcl_get_platform
afcl_get_queue
afcl_set_device_context
afcl_set_device_id
afcu_cublasSetMathMode
afcu_get_native_id
afcu_get_stream
afcu_set_native_id
boost_stacktrace_impl_return_nullptr
